ARM GAS  C:\Users\Joseph\AppData\Local\Temp\cccEsjNX.s 			page 1


   1              		.cpu cortex-m0
   2              		.fpu softvfp
   3              		.eabi_attribute 20, 1
   4              		.eabi_attribute 21, 1
   5              		.eabi_attribute 23, 3
   6              		.eabi_attribute 24, 1
   7              		.eabi_attribute 25, 1
   8              		.eabi_attribute 26, 1
   9              		.eabi_attribute 30, 6
  10              		.eabi_attribute 34, 0
  11              		.eabi_attribute 18, 4
  12              		.code	16
  13              		.file	"i2cClock.c"
  14              		.text
  15              	.Ltext0:
  16              		.cfi_sections	.debug_frame
  17              		.section	.text.readReg,"ax",%progbits
  18              		.align	2
  19              		.global	readReg
  20              		.code	16
  21              		.thumb_func
  22              		.type	readReg, %function
  23              	readReg:
  24              	.LFB33:
  25              		.file 1 ".\\i2cClock.c"
   1:.\i2cClock.c  **** /* ========================================
   2:.\i2cClock.c  ****  *
   3:.\i2cClock.c  ****  * Copyright YOUR COMPANY, THE YEAR
   4:.\i2cClock.c  ****  * All Rights Reserved
   5:.\i2cClock.c  ****  * UNPUBLISHED, LICENSED SOFTWARE.
   6:.\i2cClock.c  ****  *
   7:.\i2cClock.c  ****  * CONFIDENTIAL AND PROPRIETARY INFORMATION
   8:.\i2cClock.c  ****  * WHICH IS THE PROPERTY OF your company.
   9:.\i2cClock.c  ****  *
  10:.\i2cClock.c  ****  * ========================================
  11:.\i2cClock.c  **** */
  12:.\i2cClock.c  **** #include <i2cClock.h>
  13:.\i2cClock.c  **** 
  14:.\i2cClock.c  **** 
  15:.\i2cClock.c  **** 
  16:.\i2cClock.c  **** uint8 readReg(uint8 Reg){
  26              		.loc 1 16 0
  27              		.cfi_startproc
  28 0000 80B5     		push	{r7, lr}
  29              		.cfi_def_cfa_offset 8
  30              		.cfi_offset 7, -8
  31              		.cfi_offset 14, -4
  32 0002 84B0     		sub	sp, sp, #16
  33              		.cfi_def_cfa_offset 24
  34 0004 00AF     		add	r7, sp, #0
  35              		.cfi_def_cfa_register 7
  36 0006 021C     		mov	r2, r0
  37 0008 FB1D     		add	r3, r7, #7
  38 000a 1A70     		strb	r2, [r3]
  17:.\i2cClock.c  ****     
  18:.\i2cClock.c  **** // write register adress to slave adress
  19:.\i2cClock.c  **** // use MasterReadBuff to store contents of register in read buffer
ARM GAS  C:\Users\Joseph\AppData\Local\Temp\cccEsjNX.s 			page 2


  20:.\i2cClock.c  ****     
  21:.\i2cClock.c  ****     uint8 writeBuffer[1] = {0}; 
  39              		.loc 1 21 0
  40 000c 3B1C     		mov	r3, r7
  41 000e 0C33     		add	r3, r3, #12
  42 0010 0022     		mov	r2, #0
  43 0012 1A70     		strb	r2, [r3]
  22:.\i2cClock.c  ****     writeBuffer[0] = Reg;               
  44              		.loc 1 22 0
  45 0014 3B1C     		mov	r3, r7
  46 0016 0C33     		add	r3, r3, #12
  47 0018 FA1D     		add	r2, r7, #7
  48 001a 1278     		ldrb	r2, [r2]
  49 001c 1A70     		strb	r2, [r3]
  23:.\i2cClock.c  ****     // put register address into write buffer
  24:.\i2cClock.c  **** 
  25:.\i2cClock.c  ****     uint8 readBuffer[1] = {0};
  50              		.loc 1 25 0
  51 001e 3B1C     		mov	r3, r7
  52 0020 0833     		add	r3, r3, #8
  53 0022 0022     		mov	r2, #0
  54 0024 1A70     		strb	r2, [r3]
  26:.\i2cClock.c  **** 
  27:.\i2cClock.c  ****     I2C_I2CMasterWriteBuf(CLOCK_ADDR, (uint8 *)writeBuffer,1, I2C_I2C_MODE_NO_STOP);
  55              		.loc 1 27 0
  56 0026 3B1C     		mov	r3, r7
  57 0028 0C33     		add	r3, r3, #12
  58 002a 6820     		mov	r0, #104
  59 002c 191C     		mov	r1, r3
  60 002e 0122     		mov	r2, #1
  61 0030 0223     		mov	r3, #2
  62 0032 FFF7FEFF 		bl	I2C_I2CMasterWriteBuf
  28:.\i2cClock.c  ****     //send register adress to slave at clock adress
  29:.\i2cClock.c  ****     
  30:.\i2cClock.c  ****     while((I2C_I2CMasterStatus() & I2C_I2C_MSTAT_WR_CMPLT)==0){}
  63              		.loc 1 30 0
  64 0036 C046     		mov	r8, r8
  65              	.L2:
  66              		.loc 1 30 0 is_stmt 0 discriminator 1
  67 0038 FFF7FEFF 		bl	I2C_I2CMasterStatus
  68 003c 021C     		mov	r2, r0
  69 003e 0223     		mov	r3, #2
  70 0040 1340     		and	r3, r2
  71 0042 F9D0     		beq	.L2
  31:.\i2cClock.c  ****     // wait until transfer is done
  32:.\i2cClock.c  **** 
  33:.\i2cClock.c  ****     I2C_I2CMasterReadBuf(CLOCK_ADDR,(uint8 *)readBuffer,1,I2C_I2C_MODE_REPEAT_START);
  72              		.loc 1 33 0 is_stmt 1
  73 0044 3B1C     		mov	r3, r7
  74 0046 0833     		add	r3, r3, #8
  75 0048 6820     		mov	r0, #104
  76 004a 191C     		mov	r1, r3
  77 004c 0122     		mov	r2, #1
  78 004e 0123     		mov	r3, #1
  79 0050 FFF7FEFF 		bl	I2C_I2CMasterReadBuf
  34:.\i2cClock.c  ****     // read contents of register
  35:.\i2cClock.c  ****     
ARM GAS  C:\Users\Joseph\AppData\Local\Temp\cccEsjNX.s 			page 3


  36:.\i2cClock.c  ****     while((I2C_I2CMasterStatus() & I2C_I2C_MSTAT_RD_CMPLT)==0){}
  80              		.loc 1 36 0
  81 0054 C046     		mov	r8, r8
  82              	.L3:
  83              		.loc 1 36 0 is_stmt 0 discriminator 1
  84 0056 FFF7FEFF 		bl	I2C_I2CMasterStatus
  85 005a 021C     		mov	r2, r0
  86 005c 0123     		mov	r3, #1
  87 005e 1340     		and	r3, r2
  88 0060 F9D0     		beq	.L3
  37:.\i2cClock.c  ****     // wait until read is done
  38:.\i2cClock.c  ****     
  39:.\i2cClock.c  ****     return readBuffer[0];
  89              		.loc 1 39 0 is_stmt 1
  90 0062 3B1C     		mov	r3, r7
  91 0064 0833     		add	r3, r3, #8
  92 0066 1B78     		ldrb	r3, [r3]
  40:.\i2cClock.c  **** 
  41:.\i2cClock.c  **** }
  93              		.loc 1 41 0
  94 0068 181C     		mov	r0, r3
  95 006a BD46     		mov	sp, r7
  96 006c 04B0     		add	sp, sp, #16
  97              		@ sp needed
  98 006e 80BD     		pop	{r7, pc}
  99              		.cfi_endproc
 100              	.LFE33:
 101              		.size	readReg, .-readReg
 102              		.section	.text.writeReg,"ax",%progbits
 103              		.align	2
 104              		.global	writeReg
 105              		.code	16
 106              		.thumb_func
 107              		.type	writeReg, %function
 108              	writeReg:
 109              	.LFB34:
  42:.\i2cClock.c  **** 
  43:.\i2cClock.c  **** void writeReg(uint8 Reg, uint8 value){
 110              		.loc 1 43 0
 111              		.cfi_startproc
 112 0000 80B5     		push	{r7, lr}
 113              		.cfi_def_cfa_offset 8
 114              		.cfi_offset 7, -8
 115              		.cfi_offset 14, -4
 116 0002 84B0     		sub	sp, sp, #16
 117              		.cfi_def_cfa_offset 24
 118 0004 00AF     		add	r7, sp, #0
 119              		.cfi_def_cfa_register 7
 120 0006 0A1C     		mov	r2, r1
 121 0008 FB1D     		add	r3, r7, #7
 122 000a 011C     		add	r1, r0, #0
 123 000c 1970     		strb	r1, [r3]
 124 000e BB1D     		add	r3, r7, #6
 125 0010 1A70     		strb	r2, [r3]
  44:.\i2cClock.c  ****     
  45:.\i2cClock.c  **** // first write register address to slave, then write value
  46:.\i2cClock.c  ****     
ARM GAS  C:\Users\Joseph\AppData\Local\Temp\cccEsjNX.s 			page 4


  47:.\i2cClock.c  ****     uint8  writeBuffer[2];
  48:.\i2cClock.c  ****     
  49:.\i2cClock.c  ****     writeBuffer[0] = Reg; 
 126              		.loc 1 49 0
 127 0012 3B1C     		mov	r3, r7
 128 0014 0C33     		add	r3, r3, #12
 129 0016 FA1D     		add	r2, r7, #7
 130 0018 1278     		ldrb	r2, [r2]
 131 001a 1A70     		strb	r2, [r3]
  50:.\i2cClock.c  ****     writeBuffer[1] = value;   
 132              		.loc 1 50 0
 133 001c 3B1C     		mov	r3, r7
 134 001e 0C33     		add	r3, r3, #12
 135 0020 BA1D     		add	r2, r7, #6
 136 0022 1278     		ldrb	r2, [r2]
 137 0024 5A70     		strb	r2, [r3, #1]
  51:.\i2cClock.c  ****     
  52:.\i2cClock.c  ****     I2C_I2CMasterWriteBuf(CLOCK_ADDR, (uint8 *)writeBuffer, 2, I2C_I2C_MODE_COMPLETE_XFER);
 138              		.loc 1 52 0
 139 0026 3B1C     		mov	r3, r7
 140 0028 0C33     		add	r3, r3, #12
 141 002a 6820     		mov	r0, #104
 142 002c 191C     		mov	r1, r3
 143 002e 0222     		mov	r2, #2
 144 0030 0023     		mov	r3, #0
 145 0032 FFF7FEFF 		bl	I2C_I2CMasterWriteBuf
  53:.\i2cClock.c  ****     // write values
  54:.\i2cClock.c  ****     
  55:.\i2cClock.c  ****     while((I2C_I2CMasterStatus() & I2C_I2C_MSTAT_WR_CMPLT)==0){}
 146              		.loc 1 55 0
 147 0036 C046     		mov	r8, r8
 148              	.L6:
 149              		.loc 1 55 0 is_stmt 0 discriminator 1
 150 0038 FFF7FEFF 		bl	I2C_I2CMasterStatus
 151 003c 021C     		mov	r2, r0
 152 003e 0223     		mov	r3, #2
 153 0040 1340     		and	r3, r2
 154 0042 F9D0     		beq	.L6
  56:.\i2cClock.c  ****     // wait until write is complete
  57:.\i2cClock.c  **** 
  58:.\i2cClock.c  **** }
 155              		.loc 1 58 0 is_stmt 1
 156 0044 BD46     		mov	sp, r7
 157 0046 04B0     		add	sp, sp, #16
 158              		@ sp needed
 159 0048 80BD     		pop	{r7, pc}
 160              		.cfi_endproc
 161              	.LFE34:
 162              		.size	writeReg, .-writeReg
 163 004a C046     		.section	.text.writeMultiReg,"ax",%progbits
 164              		.align	2
 165              		.global	writeMultiReg
 166              		.code	16
 167              		.thumb_func
 168              		.type	writeMultiReg, %function
 169              	writeMultiReg:
 170              	.LFB35:
ARM GAS  C:\Users\Joseph\AppData\Local\Temp\cccEsjNX.s 			page 5


  59:.\i2cClock.c  **** 
  60:.\i2cClock.c  **** void    writeMultiReg(uint8 startReg, uint8 values[], uint8 n){
 171              		.loc 1 60 0
 172              		.cfi_startproc
 173 0000 F0B5     		push	{r4, r5, r6, r7, lr}
 174              		.cfi_def_cfa_offset 20
 175              		.cfi_offset 4, -20
 176              		.cfi_offset 5, -16
 177              		.cfi_offset 6, -12
 178              		.cfi_offset 7, -8
 179              		.cfi_offset 14, -4
 180 0002 4746     		mov	r7, r8
 181 0004 80B4     		push	{r7}
 182              		.cfi_def_cfa_offset 24
 183              		.cfi_offset 8, -24
 184 0006 8AB0     		sub	sp, sp, #40
 185              		.cfi_def_cfa_offset 64
 186 0008 00AF     		add	r7, sp, #0
 187              		.cfi_def_cfa_register 7
 188 000a 3961     		str	r1, [r7, #16]
 189 000c 111C     		mov	r1, r2
 190 000e 3A1C     		mov	r2, r7
 191 0010 1732     		add	r2, r2, #23
 192 0012 1070     		strb	r0, [r2]
 193 0014 3A1C     		mov	r2, r7
 194 0016 1632     		add	r2, r2, #22
 195 0018 1170     		strb	r1, [r2]
 196 001a 6A46     		mov	r2, sp
 197 001c 9046     		mov	r8, r2
  61:.\i2cClock.c  ****     
  62:.\i2cClock.c  **** // first write register address to slave, then write value
  63:.\i2cClock.c  ****     
  64:.\i2cClock.c  ****     uint8  writeBuffer[n+1];
 198              		.loc 1 64 0
 199 001e 3A1C     		mov	r2, r7
 200 0020 1632     		add	r2, r2, #22
 201 0022 1278     		ldrb	r2, [r2]
 202 0024 0132     		add	r2, r2, #1
 203 0026 511E     		sub	r1, r2, #1
 204 0028 3962     		str	r1, [r7, #32]
 205 002a 111C     		mov	r1, r2
 206 002c 0D1C     		mov	r5, r1
 207 002e 0021     		mov	r1, #0
 208 0030 0E1C     		mov	r6, r1
 209 0032 690F     		lsr	r1, r5, #29
 210 0034 F000     		lsl	r0, r6, #3
 211 0036 F860     		str	r0, [r7, #12]
 212 0038 FB68     		ldr	r3, [r7, #12]
 213 003a 0B43     		orr	r3, r1
 214 003c FB60     		str	r3, [r7, #12]
 215 003e E800     		lsl	r0, r5, #3
 216 0040 111C     		mov	r1, r2
 217 0042 0B1C     		mov	r3, r1
 218 0044 0021     		mov	r1, #0
 219 0046 0C1C     		mov	r4, r1
 220 0048 590F     		lsr	r1, r3, #29
 221 004a E000     		lsl	r0, r4, #3
ARM GAS  C:\Users\Joseph\AppData\Local\Temp\cccEsjNX.s 			page 6


 222 004c 7860     		str	r0, [r7, #4]
 223 004e 7868     		ldr	r0, [r7, #4]
 224 0050 0843     		orr	r0, r1
 225 0052 7860     		str	r0, [r7, #4]
 226 0054 D900     		lsl	r1, r3, #3
 227 0056 131C     		mov	r3, r2
 228 0058 0733     		add	r3, r3, #7
 229 005a DB08     		lsr	r3, r3, #3
 230 005c DB00     		lsl	r3, r3, #3
 231 005e 6A46     		mov	r2, sp
 232 0060 D21A     		sub	r2, r2, r3
 233 0062 9546     		mov	sp, r2
 234 0064 6B46     		mov	r3, sp
 235 0066 0033     		add	r3, r3, #0
 236 0068 FB61     		str	r3, [r7, #28]
  65:.\i2cClock.c  ****     writeBuffer[0] = startReg;
 237              		.loc 1 65 0
 238 006a FB69     		ldr	r3, [r7, #28]
 239 006c 3A1C     		mov	r2, r7
 240 006e 1732     		add	r2, r2, #23
 241 0070 1278     		ldrb	r2, [r2]
 242 0072 1A70     		strb	r2, [r3]
  66:.\i2cClock.c  ****     
  67:.\i2cClock.c  ****     int i = 0;
 243              		.loc 1 67 0
 244 0074 0023     		mov	r3, #0
 245 0076 7B62     		str	r3, [r7, #36]
  68:.\i2cClock.c  ****     for(i =1; i<n+1; i++){
 246              		.loc 1 68 0
 247 0078 0123     		mov	r3, #1
 248 007a 7B62     		str	r3, [r7, #36]
 249 007c 0BE0     		b	.L8
 250              	.L9:
  69:.\i2cClock.c  ****     
  70:.\i2cClock.c  ****         writeBuffer[i] = values[i-1];
 251              		.loc 1 70 0 discriminator 2
 252 007e 7B6A     		ldr	r3, [r7, #36]
 253 0080 013B     		sub	r3, r3, #1
 254 0082 3A69     		ldr	r2, [r7, #16]
 255 0084 D318     		add	r3, r2, r3
 256 0086 1A78     		ldrb	r2, [r3]
 257 0088 F969     		ldr	r1, [r7, #28]
 258 008a 7B6A     		ldr	r3, [r7, #36]
 259 008c CB18     		add	r3, r1, r3
 260 008e 1A70     		strb	r2, [r3]
  68:.\i2cClock.c  ****     for(i =1; i<n+1; i++){
 261              		.loc 1 68 0 discriminator 2
 262 0090 7B6A     		ldr	r3, [r7, #36]
 263 0092 0133     		add	r3, r3, #1
 264 0094 7B62     		str	r3, [r7, #36]
 265              	.L8:
  68:.\i2cClock.c  ****     for(i =1; i<n+1; i++){
 266              		.loc 1 68 0 is_stmt 0 discriminator 1
 267 0096 3B1C     		mov	r3, r7
 268 0098 1633     		add	r3, r3, #22
 269 009a 1B78     		ldrb	r3, [r3]
 270 009c 5A1C     		add	r2, r3, #1
ARM GAS  C:\Users\Joseph\AppData\Local\Temp\cccEsjNX.s 			page 7


 271 009e 7B6A     		ldr	r3, [r7, #36]
 272 00a0 9A42     		cmp	r2, r3
 273 00a2 ECDC     		bgt	.L9
  71:.\i2cClock.c  ****     }
  72:.\i2cClock.c  ****     
  73:.\i2cClock.c  ****     I2C_I2CMasterWriteBuf(CLOCK_ADDR, (uint8 *)writeBuffer, n+1, I2C_I2C_MODE_COMPLETE_XFER);
 274              		.loc 1 73 0 is_stmt 1
 275 00a4 FA69     		ldr	r2, [r7, #28]
 276 00a6 3B1C     		mov	r3, r7
 277 00a8 1633     		add	r3, r3, #22
 278 00aa 1B78     		ldrb	r3, [r3]
 279 00ac 0133     		add	r3, r3, #1
 280 00ae 6820     		mov	r0, #104
 281 00b0 111C     		mov	r1, r2
 282 00b2 1A1C     		mov	r2, r3
 283 00b4 0023     		mov	r3, #0
 284 00b6 FFF7FEFF 		bl	I2C_I2CMasterWriteBuf
  74:.\i2cClock.c  ****     // write values
  75:.\i2cClock.c  ****     
  76:.\i2cClock.c  ****     while((I2C_I2CMasterStatus() & I2C_I2C_MSTAT_WR_CMPLT)){}
 285              		.loc 1 76 0
 286 00ba C046     		mov	r8, r8
 287              	.L10:
 288              		.loc 1 76 0 is_stmt 0 discriminator 1
 289 00bc FFF7FEFF 		bl	I2C_I2CMasterStatus
 290 00c0 021C     		mov	r2, r0
 291 00c2 0223     		mov	r3, #2
 292 00c4 1340     		and	r3, r2
 293 00c6 F9D1     		bne	.L10
 294 00c8 C546     		mov	sp, r8
  77:.\i2cClock.c  ****     // wait until write is complete
  78:.\i2cClock.c  **** 
  79:.\i2cClock.c  **** 
  80:.\i2cClock.c  **** 
  81:.\i2cClock.c  **** }
 295              		.loc 1 81 0 is_stmt 1
 296 00ca BD46     		mov	sp, r7
 297 00cc 0AB0     		add	sp, sp, #40
 298              		@ sp needed
 299 00ce 04BC     		pop	{r2}
 300 00d0 9046     		mov	r8, r2
 301 00d2 F0BD     		pop	{r4, r5, r6, r7, pc}
 302              		.cfi_endproc
 303              	.LFE35:
 304              		.size	writeMultiReg, .-writeMultiReg
 305              		.text
 306              	.Letext0:
 307              		.file 2 ".\\Generated_Source\\PSoC4/cytypes.h"