ARM GAS  C:\Users\Joseph\AppData\Local\Temp\cccEsjNX.s 			page 1


   1              		.cpu cortex-m0
   2              		.fpu softvfp
   3              		.eabi_attribute 20, 1
   4              		.eabi_attribute 21, 1
   5              		.eabi_attribute 23, 3
   6              		.eabi_attribute 24, 1
   7              		.eabi_attribute 25, 1
   8              		.eabi_attribute 26, 1
   9              		.eabi_attribute 30, 6
  10              		.eabi_attribute 34, 0
  11              		.eabi_attribute 18, 4
  12              		.code	16
  13              		.file	"i2cClock.c"
  14              		.text
  15              	.Ltext0:
  16              		.cfi_sections	.debug_frame
  17              		.section	.text.readReg,"ax",%progbits
  18              		.align	2
  19              		.global	readReg
  20              		.code	16
  21              		.thumb_func
  22              		.type	readReg, %function
  23              	readReg:
  24              	.LFB33:
  25              		.file 1 ".\\i2cClock.c"
   1:.\i2cClock.c  **** /* ========================================
   2:.\i2cClock.c  ****  *
   3:.\i2cClock.c  ****  * Copyright YOUR COMPANY, THE YEAR
   4:.\i2cClock.c  ****  * All Rights Reserved
   5:.\i2cClock.c  ****  * UNPUBLISHED, LICENSED SOFTWARE.
   6:.\i2cClock.c  ****  *
   7:.\i2cClock.c  ****  * CONFIDENTIAL AND PROPRIETARY INFORMATION
   8:.\i2cClock.c  ****  * WHICH IS THE PROPERTY OF your company.
   9:.\i2cClock.c  ****  *
  10:.\i2cClock.c  ****  * ========================================
  11:.\i2cClock.c  **** */
  12:.\i2cClock.c  **** #include <i2cClock.h>
  13:.\i2cClock.c  **** 
  14:.\i2cClock.c  **** 
  15:.\i2cClock.c  **** 
  16:.\i2cClock.c  **** uint8 readReg(uint8 Reg){
  26              		.loc 1 16 0
  27              		.cfi_startproc
  28 0000 80B5     		push	{r7, lr}
  29              		.cfi_def_cfa_offset 8
  30              		.cfi_offset 7, -8
  31              		.cfi_offset 14, -4
  32 0002 84B0     		sub	sp, sp, #16
  33              		.cfi_def_cfa_offset 24
  34 0004 00AF     		add	r7, sp, #0
  35              		.cfi_def_cfa_register 7
  36 0006 021C     		mov	r2, r0
  37 0008 FB1D     		add	r3, r7, #7
  38 000a 1A70     		strb	r2, [r3]
  17:.\i2cClock.c  ****     
  18:.\i2cClock.c  **** // write register adress to slave adress
  19:.\i2cClock.c  **** // use MasterReadBuff to store contents of register in read buffer
ARM GAS  C:\Users\Joseph\AppData\Local\Temp\cccEsjNX.s 			page 2


  20:.\i2cClock.c  ****     
  21:.\i2cClock.c  ****     uint8 writeBuffer[1] = {0}; 
  39              		.loc 1 21 0
  40 000c 3B1C     		mov	r3, r7
  41 000e 0C33     		add	r3, r3, #12
  42 0010 0022     		mov	r2, #0
  43 0012 1A70     		strb	r2, [r3]
  22:.\i2cClock.c  ****     writeBuffer[0] = Reg;               
  44              		.loc 1 22 0
  45 0014 3B1C     		mov	r3, r7
  46 0016 0C33     		add	r3, r3, #12
  47 0018 FA1D     		add	r2, r7, #7
  48 001a 1278     		ldrb	r2, [r2]
  49 001c 1A70     		strb	r2, [r3]
  23:.\i2cClock.c  ****     // put register address into write buffer
  24:.\i2cClock.c  **** 
  25:.\i2cClock.c  ****     uint8 readBuffer[1] = {0};
  50              		.loc 1 25 0
  51 001e 3B1C     		mov	r3, r7
  52 0020 0833     		add	r3, r3, #8
  53 0022 0022     		mov	r2, #0
  54 0024 1A70     		strb	r2, [r3]
  26:.\i2cClock.c  **** 
  27:.\i2cClock.c  ****     I2C_I2CMasterWriteBuf(CLOCK_ADDR, (uint8 *)writeBuffer,1, I2C_I2C_MODE_NO_STOP);
  55              		.loc 1 27 0
  56 0026 3B1C     		mov	r3, r7
  57 0028 0C33     		add	r3, r3, #12
  58 002a 6820     		mov	r0, #104
  59 002c 191C     		mov	r1, r3
  60 002e 0122     		mov	r2, #1
  61 0030 0223     		mov	r3, #2
  62 0032 FFF7FEFF 		bl	I2C_I2CMasterWriteBuf
  28:.\i2cClock.c  ****     //send register adress to slave at clock adress
  29:.\i2cClock.c  ****     
  30:.\i2cClock.c  ****     while((I2C_I2CMasterStatus() & I2C_I2C_MSTAT_WR_CMPLT)==0){}
  63              		.loc 1 30 0
  64 0036 C046     		mov	r8, r8
  65              	.L2:
  66              		.loc 1 30 0 is_stmt 0 discriminator 1
  67 0038 FFF7FEFF 		bl	I2C_I2CMasterStatus
  68 003c 021C     		mov	r2, r0
  69 003e 0223     		mov	r3, #2
  70 0040 1340     		and	r3, r2
  71 0042 F9D0     		beq	.L2
  31:.\i2cClock.c  ****     // wait until transfer is done
  32:.\i2cClock.c  **** 
  33:.\i2cClock.c  ****     I2C_I2CMasterReadBuf(CLOCK_ADDR,(uint8 *)readBuffer,1,I2C_I2C_MODE_REPEAT_START);
  72              		.loc 1 33 0 is_stmt 1
  73 0044 3B1C     		mov	r3, r7
  74 0046 0833     		add	r3, r3, #8
  75 0048 6820     		mov	r0, #104
  76 004a 191C     		mov	r1, r3
  77 004c 0122     		mov	r2, #1
  78 004e 0123     		mov	r3, #1
  79 0050 FFF7FEFF 		bl	I2C_I2CMasterReadBuf
  34:.\i2cClock.c  ****     // read contents of register
  35:.\i2cClock.c  ****     
ARM GAS  C:\Users\Joseph\AppData\Local\Temp\cccEsjNX.s 			page 3


  36:.\i2cClock.c  ****     while((I2C_I2CMasterStatus() & I2C_I2C_MSTAT_RD_CMPLT)==0){}
  80              		.loc 1 36 0
  81 0054 C046     		mov	r8, r8
  82              	.L3:
  83              		.loc 1 36 0 is_stmt 0 discriminator 1
  84 0056 FFF7FEFF 		bl	I2C_I2CMasterStatus
  85 005a 021C     		mov	r2, r0
  86 005c 0123     		mov	r3, #1
  87 005e 1340     		and	r3, r2
  88 0060 F9D0     		beq	.L3
  37:.\i2cClock.c  ****     // wait until read is done
  38:.\i2cClock.c  ****     
  39:.\i2cClock.c  ****     return readBuffer[0];
  89              		.loc 1 39 0 is_stmt 1
  90 0062 3B1C     		mov	r3, r7
  91 0064 0833     		add	r3, r3, #8
  92 0066 1B78     		ldrb	r3, [r3]
  40:.\i2cClock.c  **** 
  41:.\i2cClock.c  **** }
  93              		.loc 1 41 0
  94 0068 181C     		mov	r0, r3
  95 006a BD46     		mov	sp, r7
  96 006c 04B0     		add	sp, sp, #16
  97              		@ sp needed
  98 006e 80BD     		pop	{r7, pc}
  99              		.cfi_endproc
 100              	.LFE33:
 101              		.size	readReg, .-readReg
 102              		.section	.text.writeReg,"ax",%progbits
 103              		.align	2
 104              		.global	writeReg
 105              		.code	16
 106              		.thumb_func
 107              		.type	writeReg, %function
 108              	writeReg:
 109              	.LFB34:
  42:.\i2cClock.c  **** 
  43:.\i2cClock.c  **** void writeReg(uint8 Reg, uint8 value){
 110              		.loc 1 43 0
 111              		.cfi_startproc
 112 0000 80B5     		push	{r7, lr}
 113              		.cfi_def_cfa_offset 8
 114              		.cfi_offset 7, -8
 115              		.cfi_offset 14, -4
 116 0002 84B0     		sub	sp, sp, #16
 117              		.cfi_def_cfa_offset 24
 118 0004 00AF     		add	r7, sp, #0
 119              		.cfi_def_cfa_register 7
 120 0006 0A1C     		mov	r2, r1
 121 0008 FB1D     		add	r3, r7, #7
 122 000a 011C     		add	r1, r0, #0
 123 000c 1970     		strb	r1, [r3]
 124 000e BB1D     		add	r3, r7, #6
 125 0010 1A70     		strb	r2, [r3]
  44:.\i2cClock.c  ****     
  45:.\i2cClock.c  **** // first write register address to slave, then write value
  46:.\i2cClock.c  ****     
ARM GAS  C:\Users\Joseph\AppData\Local\Temp\cccEsjNX.s 			page 4


  47:.\i2cClock.c  ****     uint8  writeBuffer[2];
  48:.\i2cClock.c  ****     
  49:.\i2cClock.c  ****     writeBuffer[0] = Reg; 
 126              		.loc 1 49 0
 127 0012 3B1C     		mov	r3, r7
 128 0014 0C33     		add	r3, r3, #12
 129 0016 FA1D     		add	r2, r7, #7
 130 0018 1278     		ldrb	r2, [r2]
 131 001a 1A70     		strb	r2, [r3]
  50:.\i2cClock.c  ****     writeBuffer[1] = value;   
 132              		.loc 1 50 0
 133 001c 3B1C     		mov	r3, r7
 134 001e 0C33     		add	r3, r3, #12
 135 0020 BA1D     		add	r2, r7, #6
 136 0022 1278     		ldrb	r2, [r2]
 137 0024 5A70     		strb	r2, [r3, #1]
  51:.\i2cClock.c  ****     
  52:.\i2cClock.c  ****     I2C_I2CMasterWriteBuf(CLOCK_ADDR, (uint8 *)writeBuffer, 2, I2C_I2C_MODE_COMPLETE_XFER);
 138              		.loc 1 52 0
 139 0026 3B1C     		mov	r3, r7
 140 0028 0C33     		add	r3, r3, #12
 141 002a 6820     		mov	r0, #104
 142 002c 191C     		mov	r1, r3
 143 002e 0222     		mov	r2, #2
 144 0030 0023     		mov	r3, #0
 145 0032 FFF7FEFF 		bl	I2C_I2CMasterWriteBuf
  53:.\i2cClock.c  ****     // write values
  54:.\i2cClock.c  ****     
  55:.\i2cClock.c  ****     while((I2C_I2CMasterStatus() & I2C_I2C_MSTAT_WR_CMPLT)==0){}
 146              		.loc 1 55 0
 147 0036 C046     		mov	r8, r8
 148              	.L6:
 149              		.loc 1 55 0 is_stmt 0 discriminator 1
 150 0038 FFF7FEFF 		bl	I2C_I2CMasterStatus
 151 003c 021C     		mov	r2, r0
 152 003e 0223     		mov	r3, #2
 153 0040 1340     		and	r3, r2
 154 0042 F9D0     		beq	.L6
  56:.\i2cClock.c  ****     // wait until write is complete
  57:.\i2cClock.c  **** 
  58:.\i2cClock.c  **** }
 155              		.loc 1 58 0 is_stmt 1
 156 0044 BD46     		mov	sp, r7
 157 0046 04B0     		add	sp, sp, #16
 158              		@ sp needed
 159 0048 80BD     		pop	{r7, pc}
 160              		.cfi_endproc
 161              	.LFE34:
 162              		.size	writeReg, .-writeReg
 163 004a C046     		.section	.text.writeMultiReg,"ax",%progbits
 164              		.align	2
 165              		.global	writeMultiReg
 166              		.code	16
 167              		.thumb_func
 168              		.type	writeMultiReg, %function
 169              	writeMultiReg:
 170              	.LFB35:
ARM GAS  C:\Users\Joseph\AppData\Local\Temp\cccEsjNX.s 			page 5


  59:.\i2cClock.c  **** 
  60:.\i2cClock.c  **** void    writeMultiReg(uint8 startReg, uint8 values[], uint8 n){
 171              		.loc 1 60 0
 172              		.cfi_startproc
 173 0000 F0B5     		push	{r4, r5, r6, r7, lr}
 174              		.cfi_def_cfa_offset 20
 175              		.cfi_offset 4, -20
 176              		.cfi_offset 5, -16
 177              		.cfi_offset 6, -12
 178              		.cfi_offset 7, -8
 179              		.cfi_offset 14, -4
 180 0002 4746     		mov	r7, r8
 181 0004 80B4     		push	{r7}
 182              		.cfi_def_cfa_offset 24
 183              		.cfi_offset 8, -24
 184 0006 8AB0     		sub	sp, sp, #40
 185              		.cfi_def_cfa_offset 64
 186 0008 00AF     		add	r7, sp, #0
 187              		.cfi_def_cfa_register 7
 188 000a 3961     		str	r1, [r7, #16]
 189 000c 111C     		mov	r1, r2
 190 000e 3A1C     		mov	r2, r7
 191 0010 1732     		add	r2, r2, #23
 192 0012 1070     		strb	r0, [r2]
 193 0014 3A1C     		mov	r2, r7
 194 0016 1632     		add	r2, r2, #22
 195 0018 1170     		strb	r1, [r2]
 196 001a 6A46     		mov	r2, sp
 197 001c 9046     		mov	r8, r2
  61:.\i2cClock.c  ****     
  62:.\i2cClock.c  **** // first write register address to slave, then write value
  63:.\i2cClock.c  ****     
  64:.\i2cClock.c  ****     uint8  writeBuffer[n+1];
 198              		.loc 1 64 0
 199 001e 3A1C     		mov	r2, r7
 200 0020 1632     		add	r2, r2, #22
 201 0022 1278     		ldrb	r2, [r2]
 202 0024 0132     		add	r2, r2, #1
 203 0026 511E     		sub	r1, r2, #1
 204 0028 3962     		str	r1, [r7, #32]
 205 002a 111C     		mov	r1, r2
 206 002c 0D1C     		mov	r5, r1
 207 002e 0021     		mov	r1, #0
 208 0030 0E1C     		mov	r6, r1
 209 0032 690F     		lsr	r1, r5, #29
 210 0034 F000     		lsl	r0, r6, #3
 211 0036 F860     		str	r0, [r7, #12]
 212 0038 FB68     		ldr	r3, [r7, #12]
 213 003a 0B43     		orr	r3, r1
 214 003c FB60     		str	r3, [r7, #12]
 215 003e E800     		lsl	r0, r5, #3
 216 0040 111C     		mov	r1, r2
 217 0042 0B1C     		mov	r3, r1
 218 0044 0021     		mov	r1, #0
 219 0046 0C1C     		mov	r4, r1
 220 0048 590F     		lsr	r1, r3, #29
 221 004a E000     		lsl	r0, r4, #3
ARM GAS  C:\Users\Joseph\AppData\Local\Temp\cccEsjNX.s 			page 6


 222 004c 7860     		str	r0, [r7, #4]
 223 004e 7868     		ldr	r0, [r7, #4]
 224 0050 0843     		orr	r0, r1
 225 0052 7860     		str	r0, [r7, #4]
 226 0054 D900     		lsl	r1, r3, #3
 227 0056 131C     		mov	r3, r2
 228 0058 0733     		add	r3, r3, #7
 229 005a DB08     		lsr	r3, r3, #3
 230 005c DB00     		lsl	r3, r3, #3
 231 005e 6A46     		mov	r2, sp
 232 0060 D21A     		sub	r2, r2, r3
 233 0062 9546     		mov	sp, r2
 234 0064 6B46     		mov	r3, sp
 235 0066 0033     		add	r3, r3, #0
 236 0068 FB61     		str	r3, [r7, #28]
  65:.\i2cClock.c  ****     writeBuffer[0] = startReg;
 237              		.loc 1 65 0
 238 006a FB69     		ldr	r3, [r7, #28]
 239 006c 3A1C     		mov	r2, r7
 240 006e 1732     		add	r2, r2, #23
 241 0070 1278     		ldrb	r2, [r2]
 242 0072 1A70     		strb	r2, [r3]
  66:.\i2cClock.c  ****     
  67:.\i2cClock.c  ****     int i = 0;
 243              		.loc 1 67 0
 244 0074 0023     		mov	r3, #0
 245 0076 7B62     		str	r3, [r7, #36]
  68:.\i2cClock.c  ****     for(i =1; i<n+1; i++){
 246              		.loc 1 68 0
 247 0078 0123     		mov	r3, #1
 248 007a 7B62     		str	r3, [r7, #36]
 249 007c 0BE0     		b	.L8
 250              	.L9:
  69:.\i2cClock.c  ****     
  70:.\i2cClock.c  ****         writeBuffer[i] = values[i-1];
 251              		.loc 1 70 0 discriminator 2
 252 007e 7B6A     		ldr	r3, [r7, #36]
 253 0080 013B     		sub	r3, r3, #1
 254 0082 3A69     		ldr	r2, [r7, #16]
 255 0084 D318     		add	r3, r2, r3
 256 0086 1A78     		ldrb	r2, [r3]
 257 0088 F969     		ldr	r1, [r7, #28]
 258 008a 7B6A     		ldr	r3, [r7, #36]
 259 008c CB18     		add	r3, r1, r3
 260 008e 1A70     		strb	r2, [r3]
  68:.\i2cClock.c  ****     for(i =1; i<n+1; i++){
 261              		.loc 1 68 0 discriminator 2
 262 0090 7B6A     		ldr	r3, [r7, #36]
 263 0092 0133     		add	r3, r3, #1
 264 0094 7B62     		str	r3, [r7, #36]
 265              	.L8:
  68:.\i2cClock.c  ****     for(i =1; i<n+1; i++){
 266              		.loc 1 68 0 is_stmt 0 discriminator 1
 267 0096 3B1C     		mov	r3, r7
 268 0098 1633     		add	r3, r3, #22
 269 009a 1B78     		ldrb	r3, [r3]
 270 009c 5A1C     		add	r2, r3, #1
ARM GAS  C:\Users\Joseph\AppData\Local\Temp\cccEsjNX.s 			page 7


 271 009e 7B6A     		ldr	r3, [r7, #36]
 272 00a0 9A42     		cmp	r2, r3
 273 00a2 ECDC     		bgt	.L9
  71:.\i2cClock.c  ****     }
  72:.\i2cClock.c  ****     
  73:.\i2cClock.c  ****     I2C_I2CMasterWriteBuf(CLOCK_ADDR, (uint8 *)writeBuffer, n+1, I2C_I2C_MODE_COMPLETE_XFER);
 274              		.loc 1 73 0 is_stmt 1
 275 00a4 FA69     		ldr	r2, [r7, #28]
 276 00a6 3B1C     		mov	r3, r7
 277 00a8 1633     		add	r3, r3, #22
 278 00aa 1B78     		ldrb	r3, [r3]
 279 00ac 0133     		add	r3, r3, #1
 280 00ae 6820     		mov	r0, #104
 281 00b0 111C     		mov	r1, r2
 282 00b2 1A1C     		mov	r2, r3
 283 00b4 0023     		mov	r3, #0
 284 00b6 FFF7FEFF 		bl	I2C_I2CMasterWriteBuf
  74:.\i2cClock.c  ****     // write values
  75:.\i2cClock.c  ****     
  76:.\i2cClock.c  ****     while((I2C_I2CMasterStatus() & I2C_I2C_MSTAT_WR_CMPLT)){}
 285              		.loc 1 76 0
 286 00ba C046     		mov	r8, r8
 287              	.L10:
 288              		.loc 1 76 0 is_stmt 0 discriminator 1
 289 00bc FFF7FEFF 		bl	I2C_I2CMasterStatus
 290 00c0 021C     		mov	r2, r0
 291 00c2 0223     		mov	r3, #2
 292 00c4 1340     		and	r3, r2
 293 00c6 F9D1     		bne	.L10
 294 00c8 C546     		mov	sp, r8
  77:.\i2cClock.c  ****     // wait until write is complete
  78:.\i2cClock.c  **** 
  79:.\i2cClock.c  **** 
  80:.\i2cClock.c  **** 
  81:.\i2cClock.c  **** }
 295              		.loc 1 81 0 is_stmt 1
 296 00ca BD46     		mov	sp, r7
 297 00cc 0AB0     		add	sp, sp, #40
 298              		@ sp needed
 299 00ce 04BC     		pop	{r2}
 300 00d0 9046     		mov	r8, r2
 301 00d2 F0BD     		pop	{r4, r5, r6, r7, pc}
 302              		.cfi_endproc
 303              	.LFE35:
 304              		.size	writeMultiReg, .-writeMultiReg
 305              		.text
 306              	.Letext0:
 307              		.file 2 ".\\Generated_Source\\PSoC4/cytypes.h"
 308              		.section	.debug_info,"",%progbits
 309              	.Ldebug_info0:
 310 0000 AC010000 		.4byte	0x1ac
 311 0004 0400     		.2byte	0x4
 312 0006 00000000 		.4byte	.Ldebug_abbrev0
 313 000a 04       		.byte	0x4
 314 000b 01       		.uleb128 0x1
 315 000c D0000000 		.4byte	.LASF22
 316 0010 01       		.byte	0x1
ARM GAS  C:\Users\Joseph\AppData\Local\Temp\cccEsjNX.s 			page 8


 317 0011 4C010000 		.4byte	.LASF23
 318 0015 7A000000 		.4byte	.LASF24
 319 0019 00000000 		.4byte	.Ldebug_ranges0+0
 320 001d 00000000 		.4byte	0
 321 0021 00000000 		.4byte	.Ldebug_line0
 322 0025 02       		.uleb128 0x2
 323 0026 01       		.byte	0x1
 324 0027 06       		.byte	0x6
 325 0028 A2010000 		.4byte	.LASF0
 326 002c 02       		.uleb128 0x2
 327 002d 01       		.byte	0x1
 328 002e 08       		.byte	0x8
 329 002f 59010000 		.4byte	.LASF1
 330 0033 02       		.uleb128 0x2
 331 0034 02       		.byte	0x2
 332 0035 05       		.byte	0x5
 333 0036 BD010000 		.4byte	.LASF2
 334 003a 02       		.uleb128 0x2
 335 003b 02       		.byte	0x2
 336 003c 07       		.byte	0x7
 337 003d 8F010000 		.4byte	.LASF3
 338 0041 02       		.uleb128 0x2
 339 0042 04       		.byte	0x4
 340 0043 05       		.byte	0x5
 341 0044 77010000 		.4byte	.LASF4
 342 0048 02       		.uleb128 0x2
 343 0049 04       		.byte	0x4
 344 004a 07       		.byte	0x7
 345 004b 34000000 		.4byte	.LASF5
 346 004f 02       		.uleb128 0x2
 347 0050 08       		.byte	0x8
 348 0051 05       		.byte	0x5
 349 0052 00000000 		.4byte	.LASF6
 350 0056 02       		.uleb128 0x2
 351 0057 08       		.byte	0x8
 352 0058 07       		.byte	0x7
 353 0059 54000000 		.4byte	.LASF7
 354 005d 03       		.uleb128 0x3
 355 005e 04       		.byte	0x4
 356 005f 05       		.byte	0x5
 357 0060 696E7400 		.ascii	"int\000"
 358 0064 02       		.uleb128 0x2
 359 0065 04       		.byte	0x4
 360 0066 07       		.byte	0x7
 361 0067 15000000 		.4byte	.LASF8
 362 006b 04       		.uleb128 0x4
 363 006c 2E000000 		.4byte	.LASF9
 364 0070 02       		.byte	0x2
 365 0071 A1       		.byte	0xa1
 366 0072 2C000000 		.4byte	0x2c
 367 0076 04       		.uleb128 0x4
 368 0077 C7010000 		.4byte	.LASF10
 369 007b 02       		.byte	0x2
 370 007c A2       		.byte	0xa2
 371 007d 3A000000 		.4byte	0x3a
 372 0081 02       		.uleb128 0x2
 373 0082 04       		.byte	0x4
ARM GAS  C:\Users\Joseph\AppData\Local\Temp\cccEsjNX.s 			page 9


 374 0083 04       		.byte	0x4
 375 0084 6B000000 		.4byte	.LASF11
 376 0088 02       		.uleb128 0x2
 377 0089 08       		.byte	0x8
 378 008a 04       		.byte	0x4
 379 008b 80010000 		.4byte	.LASF12
 380 008f 02       		.uleb128 0x2
 381 0090 01       		.byte	0x1
 382 0091 08       		.byte	0x8
 383 0092 72010000 		.4byte	.LASF13
 384 0096 02       		.uleb128 0x2
 385 0097 04       		.byte	0x4
 386 0098 07       		.byte	0x7
 387 0099 CE010000 		.4byte	.LASF14
 388 009d 05       		.uleb128 0x5
 389 009e 04       		.byte	0x4
 390 009f 6B000000 		.4byte	0x6b
 391 00a3 06       		.uleb128 0x6
 392 00a4 87010000 		.4byte	.LASF25
 393 00a8 01       		.byte	0x1
 394 00a9 10       		.byte	0x10
 395 00aa 6B000000 		.4byte	0x6b
 396 00ae 00000000 		.4byte	.LFB33
 397 00b2 70000000 		.4byte	.LFE33-.LFB33
 398 00b6 01       		.uleb128 0x1
 399 00b7 9C       		.byte	0x9c
 400 00b8 E7000000 		.4byte	0xe7
 401 00bc 07       		.uleb128 0x7
 402 00bd 52656700 		.ascii	"Reg\000"
 403 00c1 01       		.byte	0x1
 404 00c2 10       		.byte	0x10
 405 00c3 6B000000 		.4byte	0x6b
 406 00c7 02       		.uleb128 0x2
 407 00c8 91       		.byte	0x91
 408 00c9 6F       		.sleb128 -17
 409 00ca 08       		.uleb128 0x8
 410 00cb 22000000 		.4byte	.LASF15
 411 00cf 01       		.byte	0x1
 412 00d0 15       		.byte	0x15
 413 00d1 E7000000 		.4byte	0xe7
 414 00d5 02       		.uleb128 0x2
 415 00d6 91       		.byte	0x91
 416 00d7 74       		.sleb128 -12
 417 00d8 08       		.uleb128 0x8
 418 00d9 67010000 		.4byte	.LASF16
 419 00dd 01       		.byte	0x1
 420 00de 19       		.byte	0x19
 421 00df E7000000 		.4byte	0xe7
 422 00e3 02       		.uleb128 0x2
 423 00e4 91       		.byte	0x91
 424 00e5 70       		.sleb128 -16
 425 00e6 00       		.byte	0
 426 00e7 09       		.uleb128 0x9
 427 00e8 6B000000 		.4byte	0x6b
 428 00ec F7000000 		.4byte	0xf7
 429 00f0 0A       		.uleb128 0xa
 430 00f1 96000000 		.4byte	0x96
ARM GAS  C:\Users\Joseph\AppData\Local\Temp\cccEsjNX.s 			page 10


 431 00f5 00       		.byte	0
 432 00f6 00       		.byte	0
 433 00f7 0B       		.uleb128 0xb
 434 00f8 AE010000 		.4byte	.LASF18
 435 00fc 01       		.byte	0x1
 436 00fd 2B       		.byte	0x2b
 437 00fe 00000000 		.4byte	.LFB34
 438 0102 4A000000 		.4byte	.LFE34-.LFB34
 439 0106 01       		.uleb128 0x1
 440 0107 9C       		.byte	0x9c
 441 0108 37010000 		.4byte	0x137
 442 010c 07       		.uleb128 0x7
 443 010d 52656700 		.ascii	"Reg\000"
 444 0111 01       		.byte	0x1
 445 0112 2B       		.byte	0x2b
 446 0113 6B000000 		.4byte	0x6b
 447 0117 02       		.uleb128 0x2
 448 0118 91       		.byte	0x91
 449 0119 6F       		.sleb128 -17
 450 011a 0C       		.uleb128 0xc
 451 011b B7010000 		.4byte	.LASF17
 452 011f 01       		.byte	0x1
 453 0120 2B       		.byte	0x2b
 454 0121 6B000000 		.4byte	0x6b
 455 0125 02       		.uleb128 0x2
 456 0126 91       		.byte	0x91
 457 0127 6E       		.sleb128 -18
 458 0128 08       		.uleb128 0x8
 459 0129 22000000 		.4byte	.LASF15
 460 012d 01       		.byte	0x1
 461 012e 2F       		.byte	0x2f
 462 012f 37010000 		.4byte	0x137
 463 0133 02       		.uleb128 0x2
 464 0134 91       		.byte	0x91
 465 0135 74       		.sleb128 -12
 466 0136 00       		.byte	0
 467 0137 09       		.uleb128 0x9
 468 0138 6B000000 		.4byte	0x6b
 469 013c 47010000 		.4byte	0x147
 470 0140 0A       		.uleb128 0xa
 471 0141 96000000 		.4byte	0x96
 472 0145 01       		.byte	0x1
 473 0146 00       		.byte	0
 474 0147 0B       		.uleb128 0xb
 475 0148 46000000 		.4byte	.LASF19
 476 014c 01       		.byte	0x1
 477 014d 3C       		.byte	0x3c
 478 014e 00000000 		.4byte	.LFB35
 479 0152 D4000000 		.4byte	.LFE35-.LFB35
 480 0156 01       		.uleb128 0x1
 481 0157 9C       		.byte	0x9c
 482 0158 A0010000 		.4byte	0x1a0
 483 015c 0C       		.uleb128 0xc
 484 015d 71000000 		.4byte	.LASF20
 485 0161 01       		.byte	0x1
 486 0162 3C       		.byte	0x3c
 487 0163 6B000000 		.4byte	0x6b
ARM GAS  C:\Users\Joseph\AppData\Local\Temp\cccEsjNX.s 			page 11


 488 0167 02       		.uleb128 0x2
 489 0168 91       		.byte	0x91
 490 0169 57       		.sleb128 -41
 491 016a 0C       		.uleb128 0xc
 492 016b 0E000000 		.4byte	.LASF21
 493 016f 01       		.byte	0x1
 494 0170 3C       		.byte	0x3c
 495 0171 9D000000 		.4byte	0x9d
 496 0175 02       		.uleb128 0x2
 497 0176 91       		.byte	0x91
 498 0177 50       		.sleb128 -48
 499 0178 07       		.uleb128 0x7
 500 0179 6E00     		.ascii	"n\000"
 501 017b 01       		.byte	0x1
 502 017c 3C       		.byte	0x3c
 503 017d 6B000000 		.4byte	0x6b
 504 0181 02       		.uleb128 0x2
 505 0182 91       		.byte	0x91
 506 0183 56       		.sleb128 -42
 507 0184 08       		.uleb128 0x8
 508 0185 22000000 		.4byte	.LASF15
 509 0189 01       		.byte	0x1
 510 018a 40       		.byte	0x40
 511 018b A0010000 		.4byte	0x1a0
 512 018f 03       		.uleb128 0x3
 513 0190 91       		.byte	0x91
 514 0191 5C       		.sleb128 -36
 515 0192 06       		.byte	0x6
 516 0193 0D       		.uleb128 0xd
 517 0194 6900     		.ascii	"i\000"
 518 0196 01       		.byte	0x1
 519 0197 43       		.byte	0x43
 520 0198 5D000000 		.4byte	0x5d
 521 019c 02       		.uleb128 0x2
 522 019d 91       		.byte	0x91
 523 019e 64       		.sleb128 -28
 524 019f 00       		.byte	0
 525 01a0 0E       		.uleb128 0xe
 526 01a1 6B000000 		.4byte	0x6b
 527 01a5 0F       		.uleb128 0xf
 528 01a6 96000000 		.4byte	0x96
 529 01aa 03       		.uleb128 0x3
 530 01ab 91       		.byte	0x91
 531 01ac 60       		.sleb128 -32
 532 01ad 06       		.byte	0x6
 533 01ae 00       		.byte	0
 534 01af 00       		.byte	0
 535              		.section	.debug_abbrev,"",%progbits
 536              	.Ldebug_abbrev0:
 537 0000 01       		.uleb128 0x1
 538 0001 11       		.uleb128 0x11
 539 0002 01       		.byte	0x1
 540 0003 25       		.uleb128 0x25
 541 0004 0E       		.uleb128 0xe
 542 0005 13       		.uleb128 0x13
 543 0006 0B       		.uleb128 0xb
 544 0007 03       		.uleb128 0x3
ARM GAS  C:\Users\Joseph\AppData\Local\Temp\cccEsjNX.s 			page 12


 545 0008 0E       		.uleb128 0xe
 546 0009 1B       		.uleb128 0x1b
 547 000a 0E       		.uleb128 0xe
 548 000b 55       		.uleb128 0x55
 549 000c 17       		.uleb128 0x17
 550 000d 11       		.uleb128 0x11
 551 000e 01       		.uleb128 0x1
 552 000f 10       		.uleb128 0x10
 553 0010 17       		.uleb128 0x17
 554 0011 00       		.byte	0
 555 0012 00       		.byte	0
 556 0013 02       		.uleb128 0x2
 557 0014 24       		.uleb128 0x24
 558 0015 00       		.byte	0
 559 0016 0B       		.uleb128 0xb
 560 0017 0B       		.uleb128 0xb
 561 0018 3E       		.uleb128 0x3e
 562 0019 0B       		.uleb128 0xb
 563 001a 03       		.uleb128 0x3
 564 001b 0E       		.uleb128 0xe
 565 001c 00       		.byte	0
 566 001d 00       		.byte	0
 567 001e 03       		.uleb128 0x3
 568 001f 24       		.uleb128 0x24
 569 0020 00       		.byte	0
 570 0021 0B       		.uleb128 0xb
 571 0022 0B       		.uleb128 0xb
 572 0023 3E       		.uleb128 0x3e
 573 0024 0B       		.uleb128 0xb
 574 0025 03       		.uleb128 0x3
 575 0026 08       		.uleb128 0x8
 576 0027 00       		.byte	0
 577 0028 00       		.byte	0
 578 0029 04       		.uleb128 0x4
 579 002a 16       		.uleb128 0x16
 580 002b 00       		.byte	0
 581 002c 03       		.uleb128 0x3
 582 002d 0E       		.uleb128 0xe
 583 002e 3A       		.uleb128 0x3a
 584 002f 0B       		.uleb128 0xb
 585 0030 3B       		.uleb128 0x3b
 586 0031 0B       		.uleb128 0xb
 587 0032 49       		.uleb128 0x49
 588 0033 13       		.uleb128 0x13
 589 0034 00       		.byte	0
 590 0035 00       		.byte	0
 591 0036 05       		.uleb128 0x5
 592 0037 0F       		.uleb128 0xf
 593 0038 00       		.byte	0
 594 0039 0B       		.uleb128 0xb
 595 003a 0B       		.uleb128 0xb
 596 003b 49       		.uleb128 0x49
 597 003c 13       		.uleb128 0x13
 598 003d 00       		.byte	0
 599 003e 00       		.byte	0
 600 003f 06       		.uleb128 0x6
 601 0040 2E       		.uleb128 0x2e
ARM GAS  C:\Users\Joseph\AppData\Local\Temp\cccEsjNX.s 			page 13


 602 0041 01       		.byte	0x1
 603 0042 3F       		.uleb128 0x3f
 604 0043 19       		.uleb128 0x19
 605 0044 03       		.uleb128 0x3
 606 0045 0E       		.uleb128 0xe
 607 0046 3A       		.uleb128 0x3a
 608 0047 0B       		.uleb128 0xb
 609 0048 3B       		.uleb128 0x3b
 610 0049 0B       		.uleb128 0xb
 611 004a 27       		.uleb128 0x27
 612 004b 19       		.uleb128 0x19
 613 004c 49       		.uleb128 0x49
 614 004d 13       		.uleb128 0x13
 615 004e 11       		.uleb128 0x11
 616 004f 01       		.uleb128 0x1
 617 0050 12       		.uleb128 0x12
 618 0051 06       		.uleb128 0x6
 619 0052 40       		.uleb128 0x40
 620 0053 18       		.uleb128 0x18
 621 0054 9642     		.uleb128 0x2116
 622 0056 19       		.uleb128 0x19
 623 0057 01       		.uleb128 0x1
 624 0058 13       		.uleb128 0x13
 625 0059 00       		.byte	0
 626 005a 00       		.byte	0
 627 005b 07       		.uleb128 0x7
 628 005c 05       		.uleb128 0x5
 629 005d 00       		.byte	0
 630 005e 03       		.uleb128 0x3
 631 005f 08       		.uleb128 0x8
 632 0060 3A       		.uleb128 0x3a
 633 0061 0B       		.uleb128 0xb
 634 0062 3B       		.uleb128 0x3b
 635 0063 0B       		.uleb128 0xb
 636 0064 49       		.uleb128 0x49
 637 0065 13       		.uleb128 0x13
 638 0066 02       		.uleb128 0x2
 639 0067 18       		.uleb128 0x18
 640 0068 00       		.byte	0
 641 0069 00       		.byte	0
 642 006a 08       		.uleb128 0x8
 643 006b 34       		.uleb128 0x34
 644 006c 00       		.byte	0
 645 006d 03       		.uleb128 0x3
 646 006e 0E       		.uleb128 0xe
 647 006f 3A       		.uleb128 0x3a
 648 0070 0B       		.uleb128 0xb
 649 0071 3B       		.uleb128 0x3b
 650 0072 0B       		.uleb128 0xb
 651 0073 49       		.uleb128 0x49
 652 0074 13       		.uleb128 0x13
 653 0075 02       		.uleb128 0x2
 654 0076 18       		.uleb128 0x18
 655 0077 00       		.byte	0
 656 0078 00       		.byte	0
 657 0079 09       		.uleb128 0x9
 658 007a 01       		.uleb128 0x1
ARM GAS  C:\Users\Joseph\AppData\Local\Temp\cccEsjNX.s 			page 14


 659 007b 01       		.byte	0x1
 660 007c 49       		.uleb128 0x49
 661 007d 13       		.uleb128 0x13
 662 007e 01       		.uleb128 0x1
 663 007f 13       		.uleb128 0x13
 664 0080 00       		.byte	0
 665 0081 00       		.byte	0
 666 0082 0A       		.uleb128 0xa
 667 0083 21       		.uleb128 0x21
 668 0084 00       		.byte	0
 669 0085 49       		.uleb128 0x49
 670 0086 13       		.uleb128 0x13
 671 0087 2F       		.uleb128 0x2f
 672 0088 0B       		.uleb128 0xb
 673 0089 00       		.byte	0
 674 008a 00       		.byte	0
 675 008b 0B       		.uleb128 0xb
 676 008c 2E       		.uleb128 0x2e
 677 008d 01       		.byte	0x1
 678 008e 3F       		.uleb128 0x3f
 679 008f 19       		.uleb128 0x19
 680 0090 03       		.uleb128 0x3
 681 0091 0E       		.uleb128 0xe
 682 0092 3A       		.uleb128 0x3a
 683 0093 0B       		.uleb128 0xb
 684 0094 3B       		.uleb128 0x3b
 685 0095 0B       		.uleb128 0xb
 686 0096 27       		.uleb128 0x27
 687 0097 19       		.uleb128 0x19
 688 0098 11       		.uleb128 0x11
 689 0099 01       		.uleb128 0x1
 690 009a 12       		.uleb128 0x12
 691 009b 06       		.uleb128 0x6
 692 009c 40       		.uleb128 0x40
 693 009d 18       		.uleb128 0x18
 694 009e 9642     		.uleb128 0x2116
 695 00a0 19       		.uleb128 0x19
 696 00a1 01       		.uleb128 0x1
 697 00a2 13       		.uleb128 0x13
 698 00a3 00       		.byte	0
 699 00a4 00       		.byte	0
 700 00a5 0C       		.uleb128 0xc
 701 00a6 05       		.uleb128 0x5
 702 00a7 00       		.byte	0
 703 00a8 03       		.uleb128 0x3
 704 00a9 0E       		.uleb128 0xe
 705 00aa 3A       		.uleb128 0x3a
 706 00ab 0B       		.uleb128 0xb
 707 00ac 3B       		.uleb128 0x3b
 708 00ad 0B       		.uleb128 0xb
 709 00ae 49       		.uleb128 0x49
 710 00af 13       		.uleb128 0x13
 711 00b0 02       		.uleb128 0x2
 712 00b1 18       		.uleb128 0x18
 713 00b2 00       		.byte	0
 714 00b3 00       		.byte	0
 715 00b4 0D       		.uleb128 0xd
ARM GAS  C:\Users\Joseph\AppData\Local\Temp\cccEsjNX.s 			page 15


 716 00b5 34       		.uleb128 0x34
 717 00b6 00       		.byte	0
 718 00b7 03       		.uleb128 0x3
 719 00b8 08       		.uleb128 0x8
 720 00b9 3A       		.uleb128 0x3a
 721 00ba 0B       		.uleb128 0xb
 722 00bb 3B       		.uleb128 0x3b
 723 00bc 0B       		.uleb128 0xb
 724 00bd 49       		.uleb128 0x49
 725 00be 13       		.uleb128 0x13
 726 00bf 02       		.uleb128 0x2
 727 00c0 18       		.uleb128 0x18
 728 00c1 00       		.byte	0
 729 00c2 00       		.byte	0
 730 00c3 0E       		.uleb128 0xe
 731 00c4 01       		.uleb128 0x1
 732 00c5 01       		.byte	0x1
 733 00c6 49       		.uleb128 0x49
 734 00c7 13       		.uleb128 0x13
 735 00c8 00       		.byte	0
 736 00c9 00       		.byte	0
 737 00ca 0F       		.uleb128 0xf
 738 00cb 21       		.uleb128 0x21
 739 00cc 00       		.byte	0
 740 00cd 49       		.uleb128 0x49
 741 00ce 13       		.uleb128 0x13
 742 00cf 2F       		.uleb128 0x2f
 743 00d0 18       		.uleb128 0x18
 744 00d1 00       		.byte	0
 745 00d2 00       		.byte	0
 746 00d3 00       		.byte	0
 747              		.section	.debug_aranges,"",%progbits
 748 0000 2C000000 		.4byte	0x2c
 749 0004 0200     		.2byte	0x2
 750 0006 00000000 		.4byte	.Ldebug_info0
 751 000a 04       		.byte	0x4
 752 000b 00       		.byte	0
 753 000c 0000     		.2byte	0
 754 000e 0000     		.2byte	0
 755 0010 00000000 		.4byte	.LFB33
 756 0014 70000000 		.4byte	.LFE33-.LFB33
 757 0018 00000000 		.4byte	.LFB34
 758 001c 4A000000 		.4byte	.LFE34-.LFB34
 759 0020 00000000 		.4byte	.LFB35
 760 0024 D4000000 		.4byte	.LFE35-.LFB35
 761 0028 00000000 		.4byte	0
 762 002c 00000000 		.4byte	0
 763              		.section	.debug_ranges,"",%progbits
 764              	.Ldebug_ranges0:
 765 0000 00000000 		.4byte	.LFB33
 766 0004 70000000 		.4byte	.LFE33
 767 0008 00000000 		.4byte	.LFB34
 768 000c 4A000000 		.4byte	.LFE34
 769 0010 00000000 		.4byte	.LFB35
 770 0014 D4000000 		.4byte	.LFE35
 771 0018 00000000 		.4byte	0
 772 001c 00000000 		.4byte	0
ARM GAS  C:\Users\Joseph\AppData\Local\Temp\cccEsjNX.s 			page 16


 773              		.section	.debug_line,"",%progbits
 774              	.Ldebug_line0:
 775 0000 C0000000 		.section	.debug_str,"MS",%progbits,1
 775      02004900 
 775      00000201 
 775      FB0E0D00 
 775      01010101 
 776              	.LASF6:
 777 0000 6C6F6E67 		.ascii	"long long int\000"
 777      206C6F6E 
 777      6720696E 
 777      7400
 778              	.LASF21:
 779 000e 76616C75 		.ascii	"values\000"
 779      657300
 780              	.LASF8:
 781 0015 756E7369 		.ascii	"unsigned int\000"
 781      676E6564 
 781      20696E74 
 781      00
 782              	.LASF15:
 783 0022 77726974 		.ascii	"writeBuffer\000"
 783      65427566 
 783      66657200 
 784              	.LASF9:
 785 002e 75696E74 		.ascii	"uint8\000"
 785      3800
 786              	.LASF5:
 787 0034 6C6F6E67 		.ascii	"long unsigned int\000"
 787      20756E73 
 787      69676E65 
 787      6420696E 
 787      7400
 788              	.LASF19:
 789 0046 77726974 		.ascii	"writeMultiReg\000"
 789      654D756C 
 789      74695265 
 789      6700
 790              	.LASF7:
 791 0054 6C6F6E67 		.ascii	"long long unsigned int\000"
 791      206C6F6E 
 791      6720756E 
 791      7369676E 
 791      65642069 
 792              	.LASF11:
 793 006b 666C6F61 		.ascii	"float\000"
 793      7400
 794              	.LASF20:
 795 0071 73746172 		.ascii	"startReg\000"
 795      74526567 
 795      00
 796              	.LASF24:
 797 007a 433A5C55 		.ascii	"C:\\Users\\Joseph\\Documents\\CY8CKIT-049-42xx\\1.0"
 797      73657273 
 797      5C4A6F73 
 797      6570685C 
 797      446F6375 
ARM GAS  C:\Users\Joseph\AppData\Local\Temp\cccEsjNX.s 			page 17


 798 00a8 5C466972 		.ascii	"\\Firmware\\SCB_Bootloader\\Design02.cydsn\000"
 798      6D776172 
 798      655C5343 
 798      425F426F 
 798      6F746C6F 
 799              	.LASF22:
 800 00d0 474E5520 		.ascii	"GNU C 4.8.4 20140526 (release) [ARM/embedded-4_8-br"
 800      4320342E 
 800      382E3420 
 800      32303134 
 800      30353236 
 801 0103 616E6368 		.ascii	"anch revision 211358] -mcpu=cortex-m0 -mthumb -g -O"
 801      20726576 
 801      6973696F 
 801      6E203231 
 801      31333538 
 802 0136 30202D66 		.ascii	"0 -ffunction-sections\000"
 802      66756E63 
 802      74696F6E 
 802      2D736563 
 802      74696F6E 
 803              	.LASF23:
 804 014c 2E5C6932 		.ascii	".\\i2cClock.c\000"
 804      63436C6F 
 804      636B2E63 
 804      00
 805              	.LASF1:
 806 0159 756E7369 		.ascii	"unsigned char\000"
 806      676E6564 
 806      20636861 
 806      7200
 807              	.LASF16:
 808 0167 72656164 		.ascii	"readBuffer\000"
 808      42756666 
 808      657200
 809              	.LASF13:
 810 0172 63686172 		.ascii	"char\000"
 810      00
 811              	.LASF4:
 812 0177 6C6F6E67 		.ascii	"long int\000"
 812      20696E74 
 812      00
 813              	.LASF12:
 814 0180 646F7562 		.ascii	"double\000"
 814      6C6500
 815              	.LASF25:
 816 0187 72656164 		.ascii	"readReg\000"
 816      52656700 
 817              	.LASF3:
 818 018f 73686F72 		.ascii	"short unsigned int\000"
 818      7420756E 
 818      7369676E 
 818      65642069 
 818      6E7400
 819              	.LASF0:
 820 01a2 7369676E 		.ascii	"signed char\000"
 820      65642063 
ARM GAS  C:\Users\Joseph\AppData\Local\Temp\cccEsjNX.s 			page 18


 820      68617200 
 821              	.LASF18:
 822 01ae 77726974 		.ascii	"writeReg\000"
 822      65526567 
 822      00
 823              	.LASF17:
 824 01b7 76616C75 		.ascii	"value\000"
 824      6500
 825              	.LASF2:
 826 01bd 73686F72 		.ascii	"short int\000"
 826      7420696E 
 826      7400
 827              	.LASF10:
 828 01c7 75696E74 		.ascii	"uint16\000"
 828      313600
 829              	.LASF14:
 830 01ce 73697A65 		.ascii	"sizetype\000"
 830      74797065 
 830      00
 831              		.ident	"GCC: (GNU Tools for ARM Embedded Processors) 4.8.4 20140526 (release) [ARM/embedded-4_8-br
