ARM GAS  C:\Users\Joseph\AppData\Local\Temp\ccjtlvac.s 			page 1


   1              		.cpu cortex-m0
   2              		.fpu softvfp
   3              		.eabi_attribute 20, 1
   4              		.eabi_attribute 21, 1
   5              		.eabi_attribute 23, 3
   6              		.eabi_attribute 24, 1
   7              		.eabi_attribute 25, 1
   8              		.eabi_attribute 26, 1
   9              		.eabi_attribute 30, 6
  10              		.eabi_attribute 34, 0
  11              		.eabi_attribute 18, 4
  12              		.code	16
  13              		.file	"main.c"
  14              		.text
  15              	.Ltext0:
  16              		.cfi_sections	.debug_frame
  17              		.section	.rodata
  18              		.align	2
  19              	.LC0:
  20 0000 636F6E74 		.ascii	"control 3 :%X      \000"
  20      726F6C20 
  20      33203A25 
  20      58202020 
  20      20202000 
  21              		.align	2
  22              	.LC2:
  23 0014 25643A25 		.ascii	"%d:%2d:%d \012\015\000"
  23      32643A25 
  23      64200A0D 
  23      00
  24 0021 000000   		.section	.text.main,"ax",%progbits
  25              		.align	2
  26              		.global	main
  27              		.code	16
  28              		.thumb_func
  29              		.type	main, %function
  30              	main:
  31              	.LFB33:
  32              		.file 1 ".\\main.c"
   1:.\main.c      **** /* ========================================
   2:.\main.c      ****  *
   3:.\main.c      ****  * Copyright YOUR COMPANY, THE YEAR
   4:.\main.c      ****  * All Rights Reserved
   5:.\main.c      ****  * UNPUBLISHED, LICENSED SOFTWARE.
   6:.\main.c      ****  *
   7:.\main.c      ****  * CONFIDENTIAL AND PROPRIETARY INFORMATION
   8:.\main.c      ****  * WHICH IS THE PROPERTY OF your company.
   9:.\main.c      ****  *
  10:.\main.c      ****  * ========================================
  11:.\main.c      **** */
  12:.\main.c      **** #include <project.h>
  13:.\main.c      **** #include <stdio.h>
  14:.\main.c      **** #include <RTC.h>
  15:.\main.c      **** 
  16:.\main.c      **** int main()
  17:.\main.c      **** {
  33              		.loc 1 17 0
ARM GAS  C:\Users\Joseph\AppData\Local\Temp\ccjtlvac.s 			page 2


  34              		.cfi_startproc
  35 0000 90B5     		push	{r4, r7, lr}
  36              		.cfi_def_cfa_offset 12
  37              		.cfi_offset 4, -12
  38              		.cfi_offset 7, -8
  39              		.cfi_offset 14, -4
  40 0002 93B0     		sub	sp, sp, #76
  41              		.cfi_def_cfa_offset 88
  42 0004 02AF     		add	r7, sp, #8
  43              		.cfi_def_cfa 7, 80
  18:.\main.c      ****     /* Place your initialization/startup code here (e.g. MyInst_Start()) */
  19:.\main.c      ****     I2C_Start();
  44              		.loc 1 19 0
  45 0006 FFF7FEFF 		bl	I2C_Start
  20:.\main.c      ****     UART_1_Start();   
  46              		.loc 1 20 0
  47 000a FFF7FEFF 		bl	UART_1_Start
  21:.\main.c      ****     
  22:.\main.c      ****     CyGlobalIntEnable;  /* Uncomment this line to enable global interrupts. */
  48              		.loc 1 22 0
  49              	@ 22 ".\main.c" 1
  50 000e 62B6     		CPSIE   i
  51              	@ 0 "" 2
  23:.\main.c      ****     uint8 hour;
  24:.\main.c      ****     uint8 seconds;
  25:.\main.c      ****     uint8 minutes;
  26:.\main.c      ****     uint8 value=0b00100000;
  52              		.loc 1 26 0
  53              		.code	16
  54 0010 3B1C     		mov	r3, r7
  55 0012 3F33     		add	r3, r3, #63
  56 0014 2022     		mov	r2, #32
  57 0016 1A70     		strb	r2, [r3]
  27:.\main.c      ****     //changePowerMode(EVERYTHING_ENABLED);
  28:.\main.c      ****     setHours(16);
  58              		.loc 1 28 0
  59 0018 1020     		mov	r0, #16
  60 001a FFF7FEFF 		bl	setHours
  29:.\main.c      ****     setMin(35);
  61              		.loc 1 29 0
  62 001e 2320     		mov	r0, #35
  63 0020 FFF7FEFF 		bl	setMin
  30:.\main.c      ****     setSec(1);
  64              		.loc 1 30 0
  65 0024 0120     		mov	r0, #1
  66 0026 FFF7FEFF 		bl	setSec
  67              	.L2:
  68              	.LBB2:
  31:.\main.c      **** 
  32:.\main.c      **** for(;;)
  33:.\main.c      ****     { 
  34:.\main.c      ****         //changeHourMode(HOURMODE_24);
  35:.\main.c      ****         setHours(14);
  69              		.loc 1 35 0 discriminator 1
  70 002a 0E20     		mov	r0, #14
  71 002c FFF7FEFF 		bl	setHours
  36:.\main.c      ****         //char bcd[10];
ARM GAS  C:\Users\Joseph\AppData\Local\Temp\ccjtlvac.s 			page 3


  37:.\main.c      ****         //sprintf(bcd,"hourbcd: %d",encodeHours24(2));
  38:.\main.c      ****         //UART_1_UartPutString(bcd);    
  39:.\main.c      ****            
  40:.\main.c      ****         hour = getHours();
  72              		.loc 1 40 0 discriminator 1
  73 0030 3C1C     		mov	r4, r7
  74 0032 3E34     		add	r4, r4, #62
  75 0034 FFF7FEFF 		bl	getHours
  76 0038 031C     		mov	r3, r0
  77 003a 2370     		strb	r3, [r4]
  41:.\main.c      ****         seconds = getSec();
  78              		.loc 1 41 0 discriminator 1
  79 003c 3C1C     		mov	r4, r7
  80 003e 3D34     		add	r4, r4, #61
  81 0040 FFF7FEFF 		bl	getSec
  82 0044 031C     		mov	r3, r0
  83 0046 2370     		strb	r3, [r4]
  42:.\main.c      ****         minutes = getMin();
  84              		.loc 1 42 0 discriminator 1
  85 0048 3C1C     		mov	r4, r7
  86 004a 3C34     		add	r4, r4, #60
  87 004c FFF7FEFF 		bl	getMin
  88 0050 031C     		mov	r3, r0
  89 0052 2370     		strb	r3, [r4]
  43:.\main.c      ****         char output[25];
  44:.\main.c      ****         char output2[25];
  45:.\main.c      ****         //uint8 control1 = readReg(CONTROL_REG_1);
  46:.\main.c      ****         //uint8 control2 = readReg(CONTROL_REG_2);
  47:.\main.c      ****         uint8 control3 = readReg(CONTROL_REG_3);
  90              		.loc 1 47 0 discriminator 1
  91 0054 3C1C     		mov	r4, r7
  92 0056 3B34     		add	r4, r4, #59
  93 0058 0220     		mov	r0, #2
  94 005a FFF7FEFF 		bl	readReg
  95 005e 031C     		mov	r3, r0
  96 0060 2370     		strb	r3, [r4]
  48:.\main.c      ****         
  49:.\main.c      ****         sprintf(output, "control 3 :%X      ", control3);
  97              		.loc 1 49 0 discriminator 1
  98 0062 3B1C     		mov	r3, r7
  99 0064 3B33     		add	r3, r3, #59
 100 0066 1B78     		ldrb	r3, [r3]
 101 0068 391C     		mov	r1, r7
 102 006a 2031     		add	r1, r1, #32
 103 006c 114A     		ldr	r2, .L3
 104 006e 081C     		mov	r0, r1
 105 0070 111C     		mov	r1, r2
 106 0072 1A1C     		mov	r2, r3
 107 0074 FFF7FEFF 		bl	sprintf
  50:.\main.c      ****         sprintf(output2,"%d:%2d:%d \n\r",hour,minutes,seconds);
 108              		.loc 1 50 0 discriminator 1
 109 0078 3B1C     		mov	r3, r7
 110 007a 3E33     		add	r3, r3, #62
 111 007c 1A78     		ldrb	r2, [r3]
 112 007e 3B1C     		mov	r3, r7
 113 0080 3C33     		add	r3, r3, #60
 114 0082 1B78     		ldrb	r3, [r3]
ARM GAS  C:\Users\Joseph\AppData\Local\Temp\ccjtlvac.s 			page 4


 115 0084 391C     		mov	r1, r7
 116 0086 3D31     		add	r1, r1, #61
 117 0088 0C78     		ldrb	r4, [r1]
 118 008a 381D     		add	r0, r7, #4
 119 008c 0A49     		ldr	r1, .L3+4
 120 008e 0094     		str	r4, [sp]
 121 0090 FFF7FEFF 		bl	sprintf
  51:.\main.c      ****         UART_1_UartPutString(output);
 122              		.loc 1 51 0 discriminator 1
 123 0094 3B1C     		mov	r3, r7
 124 0096 2033     		add	r3, r3, #32
 125 0098 181C     		mov	r0, r3
 126 009a FFF7FEFF 		bl	UART_1_UartPutString
  52:.\main.c      ****         UART_1_UartPutString(output2);
 127              		.loc 1 52 0 discriminator 1
 128 009e 3B1D     		add	r3, r7, #4
 129 00a0 181C     		mov	r0, r3
 130 00a2 FFF7FEFF 		bl	UART_1_UartPutString
  53:.\main.c      ****         
  54:.\main.c      ****         CyDelay(1000);
 131              		.loc 1 54 0 discriminator 1
 132 00a6 FA23     		mov	r3, #250
 133 00a8 9B00     		lsl	r3, r3, #2
 134 00aa 181C     		mov	r0, r3
 135 00ac FFF7FEFF 		bl	CyDelay
 136              	.LBE2:
  55:.\main.c      ****         //softReset();
  56:.\main.c      ****         
  57:.\main.c      ****         
  58:.\main.c      ****     }    /* Place your application code here. */
 137              		.loc 1 58 0 discriminator 1
 138 00b0 BBE7     		b	.L2
 139              	.L4:
 140 00b2 C046     		.align	2
 141              	.L3:
 142 00b4 00000000 		.word	.LC0
 143 00b8 14000000 		.word	.LC2
 144              		.cfi_endproc
 145              	.LFE33:
 146              		.size	main, .-main
 147              		.text
 148              	.Letext0:
 149              		.file 2 ".\\Generated_Source\\PSoC4/cytypes.h"