ARM GAS  C:\Users\Joseph\AppData\Local\Temp\ccph2e6o.s 			page 1


   1              		.cpu cortex-m0
   2              		.fpu softvfp
   3              		.eabi_attribute 20, 1
   4              		.eabi_attribute 21, 1
   5              		.eabi_attribute 23, 3
   6              		.eabi_attribute 24, 1
   7              		.eabi_attribute 25, 1
   8              		.eabi_attribute 26, 1
   9              		.eabi_attribute 30, 6
  10              		.eabi_attribute 34, 0
  11              		.eabi_attribute 18, 4
  12              		.code	16
  13              		.file	"RTC.c"
  14              		.text
  15              	.Ltext0:
  16              		.cfi_sections	.debug_frame
  17              		.section	.text.changeHourMode,"ax",%progbits
  18              		.align	2
  19              		.global	changeHourMode
  20              		.code	16
  21              		.thumb_func
  22              		.type	changeHourMode, %function
  23              	changeHourMode:
  24              	.LFB33:
  25              		.file 1 ".\\RTC.c"
   1:.\RTC.c       **** /* ========================================
   2:.\RTC.c       ****  *
   3:.\RTC.c       ****  * Copyright YOUR COMPANY, THE YEAR
   4:.\RTC.c       ****  * All Rights Reserved
   5:.\RTC.c       ****  * UNPUBLISHED, LICENSED SOFTWARE.
   6:.\RTC.c       ****  *
   7:.\RTC.c       ****  * CONFIDENTIAL AND PROPRIETARY INFORMATION
   8:.\RTC.c       ****  * WHICH IS THE PROPERTY OF your company.
   9:.\RTC.c       ****  *
  10:.\RTC.c       ****  * ========================================
  11:.\RTC.c       **** */
  12:.\RTC.c       **** 
  13:.\RTC.c       **** #include <RTC.h>
  14:.\RTC.c       **** 
  15:.\RTC.c       **** void changeHourMode(uint8 mode){
  26              		.loc 1 15 0
  27              		.cfi_startproc
  28 0000 90B5     		push	{r4, r7, lr}
  29              		.cfi_def_cfa_offset 12
  30              		.cfi_offset 4, -12
  31              		.cfi_offset 7, -8
  32              		.cfi_offset 14, -4
  33 0002 85B0     		sub	sp, sp, #20
  34              		.cfi_def_cfa_offset 32
  35 0004 00AF     		add	r7, sp, #0
  36              		.cfi_def_cfa_register 7
  37 0006 021C     		mov	r2, r0
  38 0008 FB1D     		add	r3, r7, #7
  39 000a 1A70     		strb	r2, [r3]
  16:.\RTC.c       ****     
  17:.\RTC.c       ****     uint8 controlReg = readReg(CONTROL_REG_1);
  40              		.loc 1 17 0
ARM GAS  C:\Users\Joseph\AppData\Local\Temp\ccph2e6o.s 			page 2


  41 000c 3C1C     		mov	r4, r7
  42 000e 0E34     		add	r4, r4, #14
  43 0010 0020     		mov	r0, #0
  44 0012 FFF7FEFF 		bl	readReg
  45 0016 031C     		mov	r3, r0
  46 0018 2370     		strb	r3, [r4]
  18:.\RTC.c       ****     uint8 value;
  19:.\RTC.c       **** 
  20:.\RTC.c       ****     if(mode == HOURMODE_12){
  47              		.loc 1 20 0
  48 001a FB1D     		add	r3, r7, #7
  49 001c 1B78     		ldrb	r3, [r3]
  50 001e 082B     		cmp	r3, #8
  51 0020 08D1     		bne	.L2
  21:.\RTC.c       ****         
  22:.\RTC.c       ****         value = controlReg | HOURMODE_12;
  52              		.loc 1 22 0
  53 0022 3B1C     		mov	r3, r7
  54 0024 0F33     		add	r3, r3, #15
  55 0026 3A1C     		mov	r2, r7
  56 0028 0E32     		add	r2, r2, #14
  57 002a 1278     		ldrb	r2, [r2]
  58 002c 0821     		mov	r1, #8
  59 002e 0A43     		orr	r2, r1
  60 0030 1A70     		strb	r2, [r3]
  61 0032 0BE0     		b	.L3
  62              	.L2:
  23:.\RTC.c       ****     }
  24:.\RTC.c       ****     else if(mode == HOURMODE_24){
  63              		.loc 1 24 0
  64 0034 FB1D     		add	r3, r7, #7
  65 0036 1B78     		ldrb	r3, [r3]
  66 0038 F72B     		cmp	r3, #247
  67 003a 07D1     		bne	.L3
  25:.\RTC.c       ****         
  26:.\RTC.c       ****         value = controlReg & HOURMODE_24; 
  68              		.loc 1 26 0
  69 003c 3B1C     		mov	r3, r7
  70 003e 0F33     		add	r3, r3, #15
  71 0040 3A1C     		mov	r2, r7
  72 0042 0E32     		add	r2, r2, #14
  73 0044 1278     		ldrb	r2, [r2]
  74 0046 0821     		mov	r1, #8
  75 0048 8A43     		bic	r2, r1
  76 004a 1A70     		strb	r2, [r3]
  77              	.L3:
  27:.\RTC.c       ****     }
  28:.\RTC.c       ****     
  29:.\RTC.c       ****     writeReg(CONTROL_REG_1, value);
  78              		.loc 1 29 0
  79 004c 3B1C     		mov	r3, r7
  80 004e 0F33     		add	r3, r3, #15
  81 0050 1B78     		ldrb	r3, [r3]
  82 0052 0020     		mov	r0, #0
  83 0054 191C     		mov	r1, r3
  84 0056 FFF7FEFF 		bl	writeReg
  30:.\RTC.c       **** 
ARM GAS  C:\Users\Joseph\AppData\Local\Temp\ccph2e6o.s 			page 3


  31:.\RTC.c       **** }
  85              		.loc 1 31 0
  86 005a BD46     		mov	sp, r7
  87 005c 05B0     		add	sp, sp, #20
  88              		@ sp needed
  89 005e 90BD     		pop	{r4, r7, pc}
  90              		.cfi_endproc
  91              	.LFE33:
  92              		.size	changeHourMode, .-changeHourMode
  93              		.section	.text.changePowerMode,"ax",%progbits
  94              		.align	2
  95              		.global	changePowerMode
  96              		.code	16
  97              		.thumb_func
  98              		.type	changePowerMode, %function
  99              	changePowerMode:
 100              	.LFB34:
  32:.\RTC.c       **** 
  33:.\RTC.c       **** void changePowerMode(uint8 mode){
 101              		.loc 1 33 0
 102              		.cfi_startproc
 103 0000 80B5     		push	{r7, lr}
 104              		.cfi_def_cfa_offset 8
 105              		.cfi_offset 7, -8
 106              		.cfi_offset 14, -4
 107 0002 82B0     		sub	sp, sp, #8
 108              		.cfi_def_cfa_offset 16
 109 0004 00AF     		add	r7, sp, #0
 110              		.cfi_def_cfa_register 7
 111 0006 021C     		mov	r2, r0
 112 0008 FB1D     		add	r3, r7, #7
 113 000a 1A70     		strb	r2, [r3]
  34:.\RTC.c       ****     
  35:.\RTC.c       ****     writeReg(CONTROL_REG_3, mode);
 114              		.loc 1 35 0
 115 000c FB1D     		add	r3, r7, #7
 116 000e 1B78     		ldrb	r3, [r3]
 117 0010 0220     		mov	r0, #2
 118 0012 191C     		mov	r1, r3
 119 0014 FFF7FEFF 		bl	writeReg
  36:.\RTC.c       **** 
  37:.\RTC.c       **** }
 120              		.loc 1 37 0
 121 0018 BD46     		mov	sp, r7
 122 001a 02B0     		add	sp, sp, #8
 123              		@ sp needed
 124 001c 80BD     		pop	{r7, pc}
 125              		.cfi_endproc
 126              	.LFE34:
 127              		.size	changePowerMode, .-changePowerMode
 128 001e C046     		.section	.text.setSec,"ax",%progbits
 129              		.align	2
 130              		.global	setSec
 131              		.code	16
 132              		.thumb_func
 133              		.type	setSec, %function
 134              	setSec:
ARM GAS  C:\Users\Joseph\AppData\Local\Temp\ccph2e6o.s 			page 4


 135              	.LFB35:
  38:.\RTC.c       **** 
  39:.\RTC.c       **** 
  40:.\RTC.c       **** void setSec(uint8 sec){
 136              		.loc 1 40 0
 137              		.cfi_startproc
 138 0000 90B5     		push	{r4, r7, lr}
 139              		.cfi_def_cfa_offset 12
 140              		.cfi_offset 4, -12
 141              		.cfi_offset 7, -8
 142              		.cfi_offset 14, -4
 143 0002 85B0     		sub	sp, sp, #20
 144              		.cfi_def_cfa_offset 32
 145 0004 00AF     		add	r7, sp, #0
 146              		.cfi_def_cfa_register 7
 147 0006 021C     		mov	r2, r0
 148 0008 FB1D     		add	r3, r7, #7
 149 000a 1A70     		strb	r2, [r3]
  41:.\RTC.c       **** 
  42:.\RTC.c       ****     uint8 secondsBCD = encodeSec(sec);
 150              		.loc 1 42 0
 151 000c 3C1C     		mov	r4, r7
 152 000e 0F34     		add	r4, r4, #15
 153 0010 FB1D     		add	r3, r7, #7
 154 0012 1B78     		ldrb	r3, [r3]
 155 0014 181C     		mov	r0, r3
 156 0016 FFF7FEFF 		bl	encodeSec
 157 001a 031C     		mov	r3, r0
 158 001c 2370     		strb	r3, [r4]
  43:.\RTC.c       ****     
  44:.\RTC.c       ****     writeReg(SECONDS_REG, secondsBCD);
 159              		.loc 1 44 0
 160 001e 3B1C     		mov	r3, r7
 161 0020 0F33     		add	r3, r3, #15
 162 0022 1B78     		ldrb	r3, [r3]
 163 0024 0320     		mov	r0, #3
 164 0026 191C     		mov	r1, r3
 165 0028 FFF7FEFF 		bl	writeReg
  45:.\RTC.c       **** }
 166              		.loc 1 45 0
 167 002c BD46     		mov	sp, r7
 168 002e 05B0     		add	sp, sp, #20
 169              		@ sp needed
 170 0030 90BD     		pop	{r4, r7, pc}
 171              		.cfi_endproc
 172              	.LFE35:
 173              		.size	setSec, .-setSec
 174 0032 C046     		.section	.text.getSec,"ax",%progbits
 175              		.align	2
 176              		.global	getSec
 177              		.code	16
 178              		.thumb_func
 179              		.type	getSec, %function
 180              	getSec:
 181              	.LFB36:
  46:.\RTC.c       **** uint8 getSec(){
 182              		.loc 1 46 0
ARM GAS  C:\Users\Joseph\AppData\Local\Temp\ccph2e6o.s 			page 5


 183              		.cfi_startproc
 184 0000 80B5     		push	{r7, lr}
 185              		.cfi_def_cfa_offset 8
 186              		.cfi_offset 7, -8
 187              		.cfi_offset 14, -4
 188 0002 00AF     		add	r7, sp, #0
 189              		.cfi_def_cfa_register 7
  47:.\RTC.c       **** 
  48:.\RTC.c       ****     return decodeSec(readReg(SECONDS_REG));
 190              		.loc 1 48 0
 191 0004 0320     		mov	r0, #3
 192 0006 FFF7FEFF 		bl	readReg
 193 000a 031C     		mov	r3, r0
 194 000c 181C     		mov	r0, r3
 195 000e FFF7FEFF 		bl	decodeSec
 196 0012 031C     		mov	r3, r0
  49:.\RTC.c       **** }
 197              		.loc 1 49 0
 198 0014 181C     		mov	r0, r3
 199 0016 BD46     		mov	sp, r7
 200              		@ sp needed
 201 0018 80BD     		pop	{r7, pc}
 202              		.cfi_endproc
 203              	.LFE36:
 204              		.size	getSec, .-getSec
 205 001a C046     		.section	.text.setMin,"ax",%progbits
 206              		.align	2
 207              		.global	setMin
 208              		.code	16
 209              		.thumb_func
 210              		.type	setMin, %function
 211              	setMin:
 212              	.LFB37:
  50:.\RTC.c       **** 
  51:.\RTC.c       **** 
  52:.\RTC.c       **** void setMin(uint8 minutes){
 213              		.loc 1 52 0
 214              		.cfi_startproc
 215 0000 90B5     		push	{r4, r7, lr}
 216              		.cfi_def_cfa_offset 12
 217              		.cfi_offset 4, -12
 218              		.cfi_offset 7, -8
 219              		.cfi_offset 14, -4
 220 0002 85B0     		sub	sp, sp, #20
 221              		.cfi_def_cfa_offset 32
 222 0004 00AF     		add	r7, sp, #0
 223              		.cfi_def_cfa_register 7
 224 0006 021C     		mov	r2, r0
 225 0008 FB1D     		add	r3, r7, #7
 226 000a 1A70     		strb	r2, [r3]
  53:.\RTC.c       **** 
  54:.\RTC.c       ****     uint8 minutesBCD = encodeMin(minutes);
 227              		.loc 1 54 0
 228 000c 3C1C     		mov	r4, r7
 229 000e 0F34     		add	r4, r4, #15
 230 0010 FB1D     		add	r3, r7, #7
 231 0012 1B78     		ldrb	r3, [r3]
ARM GAS  C:\Users\Joseph\AppData\Local\Temp\ccph2e6o.s 			page 6


 232 0014 181C     		mov	r0, r3
 233 0016 FFF7FEFF 		bl	encodeMin
 234 001a 031C     		mov	r3, r0
 235 001c 2370     		strb	r3, [r4]
  55:.\RTC.c       ****     writeReg(MINUTES_REG,minutesBCD);
 236              		.loc 1 55 0
 237 001e 3B1C     		mov	r3, r7
 238 0020 0F33     		add	r3, r3, #15
 239 0022 1B78     		ldrb	r3, [r3]
 240 0024 0420     		mov	r0, #4
 241 0026 191C     		mov	r1, r3
 242 0028 FFF7FEFF 		bl	writeReg
  56:.\RTC.c       **** 
  57:.\RTC.c       **** }
 243              		.loc 1 57 0
 244 002c BD46     		mov	sp, r7
 245 002e 05B0     		add	sp, sp, #20
 246              		@ sp needed
 247 0030 90BD     		pop	{r4, r7, pc}
 248              		.cfi_endproc
 249              	.LFE37:
 250              		.size	setMin, .-setMin
 251 0032 C046     		.section	.text.getMin,"ax",%progbits
 252              		.align	2
 253              		.global	getMin
 254              		.code	16
 255              		.thumb_func
 256              		.type	getMin, %function
 257              	getMin:
 258              	.LFB38:
  58:.\RTC.c       **** uint8 getMin(){
 259              		.loc 1 58 0
 260              		.cfi_startproc
 261 0000 80B5     		push	{r7, lr}
 262              		.cfi_def_cfa_offset 8
 263              		.cfi_offset 7, -8
 264              		.cfi_offset 14, -4
 265 0002 00AF     		add	r7, sp, #0
 266              		.cfi_def_cfa_register 7
  59:.\RTC.c       **** 
  60:.\RTC.c       ****     return decodeMin(readReg(MINUTES_REG));
 267              		.loc 1 60 0
 268 0004 0420     		mov	r0, #4
 269 0006 FFF7FEFF 		bl	readReg
 270 000a 031C     		mov	r3, r0
 271 000c 181C     		mov	r0, r3
 272 000e FFF7FEFF 		bl	decodeMin
 273 0012 031C     		mov	r3, r0
  61:.\RTC.c       **** 
  62:.\RTC.c       **** }
 274              		.loc 1 62 0
 275 0014 181C     		mov	r0, r3
 276 0016 BD46     		mov	sp, r7
 277              		@ sp needed
 278 0018 80BD     		pop	{r7, pc}
 279              		.cfi_endproc
 280              	.LFE38:
ARM GAS  C:\Users\Joseph\AppData\Local\Temp\ccph2e6o.s 			page 7


 281              		.size	getMin, .-getMin
 282 001a C046     		.section	.text.setHours,"ax",%progbits
 283              		.align	2
 284              		.global	setHours
 285              		.code	16
 286              		.thumb_func
 287              		.type	setHours, %function
 288              	setHours:
 289              	.LFB39:
  63:.\RTC.c       **** 
  64:.\RTC.c       **** 
  65:.\RTC.c       **** void setHours(uint8 hour){
 290              		.loc 1 65 0
 291              		.cfi_startproc
 292 0000 90B5     		push	{r4, r7, lr}
 293              		.cfi_def_cfa_offset 12
 294              		.cfi_offset 4, -12
 295              		.cfi_offset 7, -8
 296              		.cfi_offset 14, -4
 297 0002 85B0     		sub	sp, sp, #20
 298              		.cfi_def_cfa_offset 32
 299 0004 00AF     		add	r7, sp, #0
 300              		.cfi_def_cfa_register 7
 301 0006 021C     		mov	r2, r0
 302 0008 FB1D     		add	r3, r7, #7
 303 000a 1A70     		strb	r2, [r3]
  66:.\RTC.c       **** 
  67:.\RTC.c       ****     uint8 bcdHour = encodeHours24(hour);
 304              		.loc 1 67 0
 305 000c 3C1C     		mov	r4, r7
 306 000e 0F34     		add	r4, r4, #15
 307 0010 FB1D     		add	r3, r7, #7
 308 0012 1B78     		ldrb	r3, [r3]
 309 0014 181C     		mov	r0, r3
 310 0016 FFF7FEFF 		bl	encodeHours24
 311 001a 031C     		mov	r3, r0
 312 001c 2370     		strb	r3, [r4]
  68:.\RTC.c       ****     
  69:.\RTC.c       ****     writeReg(HOURS_REG,bcdHour);
 313              		.loc 1 69 0
 314 001e 3B1C     		mov	r3, r7
 315 0020 0F33     		add	r3, r3, #15
 316 0022 1B78     		ldrb	r3, [r3]
 317 0024 0520     		mov	r0, #5
 318 0026 191C     		mov	r1, r3
 319 0028 FFF7FEFF 		bl	writeReg
  70:.\RTC.c       **** 
  71:.\RTC.c       **** }
 320              		.loc 1 71 0
 321 002c BD46     		mov	sp, r7
 322 002e 05B0     		add	sp, sp, #20
 323              		@ sp needed
 324 0030 90BD     		pop	{r4, r7, pc}
 325              		.cfi_endproc
 326              	.LFE39:
 327              		.size	setHours, .-setHours
 328 0032 C046     		.section	.text.getHours,"ax",%progbits
ARM GAS  C:\Users\Joseph\AppData\Local\Temp\ccph2e6o.s 			page 8


 329              		.align	2
 330              		.global	getHours
 331              		.code	16
 332              		.thumb_func
 333              		.type	getHours, %function
 334              	getHours:
 335              	.LFB40:
  72:.\RTC.c       **** uint8 getHours(){
 336              		.loc 1 72 0
 337              		.cfi_startproc
 338 0000 90B5     		push	{r4, r7, lr}
 339              		.cfi_def_cfa_offset 12
 340              		.cfi_offset 4, -12
 341              		.cfi_offset 7, -8
 342              		.cfi_offset 14, -4
 343 0002 83B0     		sub	sp, sp, #12
 344              		.cfi_def_cfa_offset 24
 345 0004 00AF     		add	r7, sp, #0
 346              		.cfi_def_cfa_register 7
  73:.\RTC.c       **** 
  74:.\RTC.c       ****     uint8 hourBCD = readReg(HOURS_REG);
 347              		.loc 1 74 0
 348 0006 FC1D     		add	r4, r7, #7
 349 0008 0520     		mov	r0, #5
 350 000a FFF7FEFF 		bl	readReg
 351 000e 031C     		mov	r3, r0
 352 0010 2370     		strb	r3, [r4]
  75:.\RTC.c       ****     
  76:.\RTC.c       ****     return decodeHours24(hourBCD);
 353              		.loc 1 76 0
 354 0012 FB1D     		add	r3, r7, #7
 355 0014 1B78     		ldrb	r3, [r3]
 356 0016 181C     		mov	r0, r3
 357 0018 FFF7FEFF 		bl	decodeHours24
 358 001c 031C     		mov	r3, r0
  77:.\RTC.c       **** 
  78:.\RTC.c       **** }
 359              		.loc 1 78 0
 360 001e 181C     		mov	r0, r3
 361 0020 BD46     		mov	sp, r7
 362 0022 03B0     		add	sp, sp, #12
 363              		@ sp needed
 364 0024 90BD     		pop	{r4, r7, pc}
 365              		.cfi_endproc
 366              	.LFE40:
 367              		.size	getHours, .-getHours
 368 0026 C046     		.section	.text.setDay,"ax",%progbits
 369              		.align	2
 370              		.global	setDay
 371              		.code	16
 372              		.thumb_func
 373              		.type	setDay, %function
 374              	setDay:
 375              	.LFB41:
  79:.\RTC.c       **** 
  80:.\RTC.c       **** void setDay(uint8 day){
 376              		.loc 1 80 0
ARM GAS  C:\Users\Joseph\AppData\Local\Temp\ccph2e6o.s 			page 9


 377              		.cfi_startproc
 378 0000 90B5     		push	{r4, r7, lr}
 379              		.cfi_def_cfa_offset 12
 380              		.cfi_offset 4, -12
 381              		.cfi_offset 7, -8
 382              		.cfi_offset 14, -4
 383 0002 85B0     		sub	sp, sp, #20
 384              		.cfi_def_cfa_offset 32
 385 0004 00AF     		add	r7, sp, #0
 386              		.cfi_def_cfa_register 7
 387 0006 021C     		mov	r2, r0
 388 0008 FB1D     		add	r3, r7, #7
 389 000a 1A70     		strb	r2, [r3]
  81:.\RTC.c       **** 
  82:.\RTC.c       ****     uint8 bcdDay = encodeDays(day);
 390              		.loc 1 82 0
 391 000c 3C1C     		mov	r4, r7
 392 000e 0F34     		add	r4, r4, #15
 393 0010 FB1D     		add	r3, r7, #7
 394 0012 1B78     		ldrb	r3, [r3]
 395 0014 181C     		mov	r0, r3
 396 0016 FFF7FEFF 		bl	encodeDays
 397 001a 031C     		mov	r3, r0
 398 001c 2370     		strb	r3, [r4]
  83:.\RTC.c       ****     
  84:.\RTC.c       ****     writeReg(DAYS_REG,bcdDay);
 399              		.loc 1 84 0
 400 001e 3B1C     		mov	r3, r7
 401 0020 0F33     		add	r3, r3, #15
 402 0022 1B78     		ldrb	r3, [r3]
 403 0024 0620     		mov	r0, #6
 404 0026 191C     		mov	r1, r3
 405 0028 FFF7FEFF 		bl	writeReg
  85:.\RTC.c       **** 
  86:.\RTC.c       **** }
 406              		.loc 1 86 0
 407 002c BD46     		mov	sp, r7
 408 002e 05B0     		add	sp, sp, #20
 409              		@ sp needed
 410 0030 90BD     		pop	{r4, r7, pc}
 411              		.cfi_endproc
 412              	.LFE41:
 413              		.size	setDay, .-setDay
 414 0032 C046     		.section	.text.getDay,"ax",%progbits
 415              		.align	2
 416              		.global	getDay
 417              		.code	16
 418              		.thumb_func
 419              		.type	getDay, %function
 420              	getDay:
 421              	.LFB42:
  87:.\RTC.c       **** uint8 getDay(){
 422              		.loc 1 87 0
 423              		.cfi_startproc
 424 0000 90B5     		push	{r4, r7, lr}
 425              		.cfi_def_cfa_offset 12
 426              		.cfi_offset 4, -12
ARM GAS  C:\Users\Joseph\AppData\Local\Temp\ccph2e6o.s 			page 10


 427              		.cfi_offset 7, -8
 428              		.cfi_offset 14, -4
 429 0002 83B0     		sub	sp, sp, #12
 430              		.cfi_def_cfa_offset 24
 431 0004 00AF     		add	r7, sp, #0
 432              		.cfi_def_cfa_register 7
  88:.\RTC.c       **** 
  89:.\RTC.c       ****     uint8 dayBCD = readReg(DAYS_REG);
 433              		.loc 1 89 0
 434 0006 FC1D     		add	r4, r7, #7
 435 0008 0620     		mov	r0, #6
 436 000a FFF7FEFF 		bl	readReg
 437 000e 031C     		mov	r3, r0
 438 0010 2370     		strb	r3, [r4]
  90:.\RTC.c       ****     
  91:.\RTC.c       ****     return decodeHours24(dayBCD);
 439              		.loc 1 91 0
 440 0012 FB1D     		add	r3, r7, #7
 441 0014 1B78     		ldrb	r3, [r3]
 442 0016 181C     		mov	r0, r3
 443 0018 FFF7FEFF 		bl	decodeHours24
 444 001c 031C     		mov	r3, r0
  92:.\RTC.c       **** 
  93:.\RTC.c       **** }
 445              		.loc 1 93 0
 446 001e 181C     		mov	r0, r3
 447 0020 BD46     		mov	sp, r7
 448 0022 03B0     		add	sp, sp, #12
 449              		@ sp needed
 450 0024 90BD     		pop	{r4, r7, pc}
 451              		.cfi_endproc
 452              	.LFE42:
 453              		.size	getDay, .-getDay
 454 0026 C046     		.section	.text.softReset,"ax",%progbits
 455              		.align	2
 456              		.global	softReset
 457              		.code	16
 458              		.thumb_func
 459              		.type	softReset, %function
 460              	softReset:
 461              	.LFB43:
  94:.\RTC.c       **** 
  95:.\RTC.c       **** void softReset(){
 462              		.loc 1 95 0
 463              		.cfi_startproc
 464 0000 80B5     		push	{r7, lr}
 465              		.cfi_def_cfa_offset 8
 466              		.cfi_offset 7, -8
 467              		.cfi_offset 14, -4
 468 0002 00AF     		add	r7, sp, #0
 469              		.cfi_def_cfa_register 7
  96:.\RTC.c       **** 
  97:.\RTC.c       **** writeReg(CONTROL_REG_1, RESET_VALUE);
 470              		.loc 1 97 0
 471 0004 0020     		mov	r0, #0
 472 0006 5821     		mov	r1, #88
 473 0008 FFF7FEFF 		bl	writeReg
ARM GAS  C:\Users\Joseph\AppData\Local\Temp\ccph2e6o.s 			page 11


  98:.\RTC.c       ****     
  99:.\RTC.c       **** }
 474              		.loc 1 99 0
 475 000c BD46     		mov	sp, r7
 476              		@ sp needed
 477 000e 80BD     		pop	{r7, pc}
 478              		.cfi_endproc
 479              	.LFE43:
 480              		.size	softReset, .-softReset
 481              		.text
 482              	.Letext0:
 483              		.file 2 ".\\Generated_Source\\PSoC4/cytypes.h"