ARM GAS  C:\Users\Joseph\AppData\Local\Temp\cc5jmcgh.s 			page 1


   1              		.cpu cortex-m0
   2              		.fpu softvfp
   3              		.eabi_attribute 20, 1
   4              		.eabi_attribute 21, 1
   5              		.eabi_attribute 23, 3
   6              		.eabi_attribute 24, 1
   7              		.eabi_attribute 25, 1
   8              		.eabi_attribute 26, 1
   9              		.eabi_attribute 30, 6
  10              		.eabi_attribute 34, 0
  11              		.eabi_attribute 18, 4
  12              		.code	16
  13              		.file	"Interrupts.c"
  14              		.text
  15              	.Ltext0:
  16              		.cfi_sections	.debug_frame
  17              		.global	ledState
  18              		.bss
  19              		.type	ledState, %object
  20              		.size	ledState, 1
  21              	ledState:
  22 0000 00       		.space	1
  23              		.global	__aeabi_uidivmod
  24              		.section	.text.ReceiveISR,"ax",%progbits
  25              		.align	2
  26              		.global	ReceiveISR
  27              		.code	16
  28              		.thumb_func
  29              		.type	ReceiveISR, %function
  30              	ReceiveISR:
  31              	.LFB34:
  32              		.file 1 "Interrupts.c"
   1:Interrupts.c  **** /* ========================================
   2:Interrupts.c  ****  *
   3:Interrupts.c  ****  * Copyright YOUR COMPANY, THE YEAR
   4:Interrupts.c  ****  * All Rights Reserved
   5:Interrupts.c  ****  * UNPUBLISHED, LICENSED SOFTWARE.
   6:Interrupts.c  ****  *
   7:Interrupts.c  ****  * CONFIDENTIAL AND PROPRIETARY INFORMATION
   8:Interrupts.c  ****  * WHICH IS THE PROPERTY OF your company.
   9:Interrupts.c  ****  *
  10:Interrupts.c  ****  * ========================================
  11:Interrupts.c  **** */
  12:Interrupts.c  **** 
  13:Interrupts.c  **** #include <Interrupts.h>
  14:Interrupts.c  **** #include <project.h>
  15:Interrupts.c  **** #include <SerialPrint.h>
  16:Interrupts.c  **** 
  17:Interrupts.c  ****  uint8_t ledState = 0;
  18:Interrupts.c  **** CY_ISR(ReceiveISR){
  33              		.loc 1 18 0
  34              		.cfi_startproc
  35 0000 90B5     		push	{r4, r7, lr}
  36              		.cfi_def_cfa_offset 12
  37              		.cfi_offset 4, -12
  38              		.cfi_offset 7, -8
  39              		.cfi_offset 14, -4
ARM GAS  C:\Users\Joseph\AppData\Local\Temp\cc5jmcgh.s 			page 2


  40 0002 83B0     		sub	sp, sp, #12
  41              		.cfi_def_cfa_offset 24
  42 0004 00AF     		add	r7, sp, #0
  43              		.cfi_def_cfa_register 7
  19:Interrupts.c  ****     
  20:Interrupts.c  ****     dataIn[byteNum%3] = UART_1_UartGetByte();
  44              		.loc 1 20 0
  45 0006 264B     		ldr	r3, .L3
  46 0008 1B78     		ldrb	r3, [r3]
  47 000a DBB2     		uxtb	r3, r3
  48 000c 181C     		mov	r0, r3
  49 000e 0321     		mov	r1, #3
  50 0010 FFF7FEFF 		bl	__aeabi_uidivmod
  51 0014 0B1C     		mov	r3, r1
  52 0016 DBB2     		uxtb	r3, r3
  53 0018 1C1C     		mov	r4, r3
  54 001a FFF7FEFF 		bl	UART_1_UartGetByte
  55 001e 031C     		mov	r3, r0
  56 0020 DAB2     		uxtb	r2, r3
  57 0022 204B     		ldr	r3, .L3+4
  58 0024 1A55     		strb	r2, [r3, r4]
  21:Interrupts.c  **** //    dataIn[1] = UART_1_UartGetByte();
  22:Interrupts.c  **** //    dataIn[2] = UART_1_UartGetByte();
  23:Interrupts.c  ****     printlnNum(dataIn[byteNum%3],'X');
  59              		.loc 1 23 0
  60 0026 1E4B     		ldr	r3, .L3
  61 0028 1B78     		ldrb	r3, [r3]
  62 002a DBB2     		uxtb	r3, r3
  63 002c 181C     		mov	r0, r3
  64 002e 0321     		mov	r1, #3
  65 0030 FFF7FEFF 		bl	__aeabi_uidivmod
  66 0034 0B1C     		mov	r3, r1
  67 0036 DBB2     		uxtb	r3, r3
  68 0038 1A1C     		mov	r2, r3
  69 003a 1A4B     		ldr	r3, .L3+4
  70 003c 9B5C     		ldrb	r3, [r3, r2]
  71 003e DBB2     		uxtb	r3, r3
  72 0040 9BB2     		uxth	r3, r3
  73 0042 181C     		mov	r0, r3
  74 0044 5821     		mov	r1, #88
  75 0046 FFF7FEFF 		bl	printlnNum
  24:Interrupts.c  **** //    printlnNum(dataIn[1],'X');
  25:Interrupts.c  **** //    printlnNum(dataIn[2],'X');
  26:Interrupts.c  ****     
  27:Interrupts.c  ****     uint32 intsrc = UART_1_GetRxInterruptSourceMasked();
  76              		.loc 1 27 0
  77 004a 174B     		ldr	r3, .L3+8
  78 004c 1B68     		ldr	r3, [r3]
  79 004e 7B60     		str	r3, [r7, #4]
  28:Interrupts.c  ****     byteNum += 1;
  80              		.loc 1 28 0
  81 0050 134B     		ldr	r3, .L3
  82 0052 1B78     		ldrb	r3, [r3]
  83 0054 DBB2     		uxtb	r3, r3
  84 0056 0133     		add	r3, r3, #1
  85 0058 DAB2     		uxtb	r2, r3
  86 005a 114B     		ldr	r3, .L3
ARM GAS  C:\Users\Joseph\AppData\Local\Temp\cc5jmcgh.s 			page 3


  87 005c 1A70     		strb	r2, [r3]
  29:Interrupts.c  ****     if(byteNum%3==0){
  88              		.loc 1 29 0
  89 005e 104B     		ldr	r3, .L3
  90 0060 1B78     		ldrb	r3, [r3]
  91 0062 DBB2     		uxtb	r3, r3
  92 0064 181C     		mov	r0, r3
  93 0066 0321     		mov	r1, #3
  94 0068 FFF7FEFF 		bl	__aeabi_uidivmod
  95 006c 0B1C     		mov	r3, r1
  96 006e DBB2     		uxtb	r3, r3
  97 0070 002B     		cmp	r3, #0
  98 0072 02D1     		bne	.L2
  30:Interrupts.c  ****     ReceiveFlag = -1;}
  99              		.loc 1 30 0
 100 0074 0D4B     		ldr	r3, .L3+12
 101 0076 FF22     		mov	r2, #255
 102 0078 1A70     		strb	r2, [r3]
 103              	.L2:
  31:Interrupts.c  ****     UART_1_ClearRxInterruptSource(intsrc);
 104              		.loc 1 31 0
 105 007a 0D4B     		ldr	r3, .L3+16
 106 007c 7A68     		ldr	r2, [r7, #4]
 107 007e 1A60     		str	r2, [r3]
  32:Interrupts.c  ****     ledState = !ledState;
 108              		.loc 1 32 0
 109 0080 0C4B     		ldr	r3, .L3+20
 110 0082 1B78     		ldrb	r3, [r3]
 111 0084 5A42     		neg	r2, r3
 112 0086 5341     		adc	r3, r3, r2
 113 0088 DBB2     		uxtb	r3, r3
 114 008a 1A1C     		mov	r2, r3
 115 008c 094B     		ldr	r3, .L3+20
 116 008e 1A70     		strb	r2, [r3]
  33:Interrupts.c  ****     Pin_4_Write(ledState);
 117              		.loc 1 33 0
 118 0090 084B     		ldr	r3, .L3+20
 119 0092 1B78     		ldrb	r3, [r3]
 120 0094 181C     		mov	r0, r3
 121 0096 FFF7FEFF 		bl	Pin_4_Write
  34:Interrupts.c  ****     }
 122              		.loc 1 34 0
 123 009a BD46     		mov	sp, r7
 124 009c 03B0     		add	sp, sp, #12
 125              		@ sp needed
 126 009e 90BD     		pop	{r4, r7, pc}
 127              	.L4:
 128              		.align	2
 129              	.L3:
 130 00a0 00000000 		.word	byteNum
 131 00a4 00000000 		.word	dataIn
 132 00a8 CC0F0640 		.word	1074139084
 133 00ac 00000000 		.word	ReceiveFlag
 134 00b0 C00F0640 		.word	1074139072
 135 00b4 00000000 		.word	ledState
 136              		.cfi_endproc
 137              	.LFE34:
ARM GAS  C:\Users\Joseph\AppData\Local\Temp\cc5jmcgh.s 			page 4


 138              		.size	ReceiveISR, .-ReceiveISR
 139              		.text
 140              	.Letext0:
 141              		.file 2 "c:\\program files (x86)\\cypress\\psoc creator\\4.0\\psoc creator\\import\\gnu\\arm\\4.9.
 142              		.file 3 "c:\\program files (x86)\\cypress\\psoc creator\\4.0\\psoc creator\\import\\gnu\\arm\\4.9.
 143              		.file 4 "Generated_Source\\PSoC4/cytypes.h"
 144              		.file 5 "./Interrupts.h"