ARM GAS  C:\Users\Joseph\AppData\Local\Temp\ccvarZmH.s 			page 1


   1              		.cpu cortex-m0
   2              		.fpu softvfp
   3              		.eabi_attribute 20, 1
   4              		.eabi_attribute 21, 1
   5              		.eabi_attribute 23, 3
   6              		.eabi_attribute 24, 1
   7              		.eabi_attribute 25, 1
   8              		.eabi_attribute 26, 1
   9              		.eabi_attribute 30, 6
  10              		.eabi_attribute 34, 0
  11              		.eabi_attribute 18, 4
  12              		.code	16
  13              		.file	"main.c"
  14              		.text
  15              	.Ltext0:
  16              		.cfi_sections	.debug_frame
  17              		.comm	dataIn,3,4
  18              		.global	ReceiveFlag
  19              		.bss
  20              		.type	ReceiveFlag, %object
  21              		.size	ReceiveFlag, 1
  22              	ReceiveFlag:
  23 0000 00       		.space	1
  24              		.global	byteNum
  25              		.type	byteNum, %object
  26              		.size	byteNum, 1
  27              	byteNum:
  28 0001 00       		.space	1
  29              		.global	ledDelay
  30              		.data
  31              		.type	ledDelay, %object
  32              		.size	ledDelay, 1
  33              	ledDelay:
  34 0000 FA       		.byte	-6
  35              		.comm	alarms,28,4
  36              		.global	numAlarms
  37              		.bss
  38              		.type	numAlarms, %object
  39              		.size	numAlarms, 1
  40              	numAlarms:
  41 0002 00       		.space	1
  42              		.global	MAX_ALARMS
  43              		.data
  44              		.type	MAX_ALARMS, %object
  45              		.size	MAX_ALARMS, 1
  46              	MAX_ALARMS:
  47 0001 07       		.byte	7
  48              		.section	.text.updateDisplay,"ax",%progbits
  49              		.align	2
  50              		.global	updateDisplay
  51              		.code	16
  52              		.thumb_func
  53              		.type	updateDisplay, %function
  54              	updateDisplay:
  55              	.LFB34:
  56              		.file 1 "main.c"
   1:main.c        **** /* ========================================
ARM GAS  C:\Users\Joseph\AppData\Local\Temp\ccvarZmH.s 			page 2


   2:main.c        ****  *
   3:main.c        ****  * Copyright YOUR COMPANY, THE YEAR
   4:main.c        ****  * All Rights Reserved
   5:main.c        ****  * UNPUBLISHED, LICENSED SOFTWARE.
   6:main.c        ****  *
   7:main.c        ****  * CONFIDENTIAL AND PROPRIETARY INFORMATION
   8:main.c        ****  * WHICH IS THE PROPERTY OF your company.
   9:main.c        ****  *
  10:main.c        ****  * ========================================
  11:main.c        **** */
  12:main.c        **** #include <project.h>
  13:main.c        **** #include <stdio.h>
  14:main.c        **** #include <RTC.h>
  15:main.c        **** #include <SerialPrint.h>
  16:main.c        **** #include <Interrupts.h>
  17:main.c        **** 
  18:main.c        ****     volatile uint8_t dataIn[3];
  19:main.c        ****     volatile int8_t  ReceiveFlag =0;
  20:main.c        ****     volatile uint8_t byteNum = 0;
  21:main.c        ****     uint8_t ledDelay = 250;
  22:main.c        ****     struct time *alarms[7]; // array of all alarms
  23:main.c        ****     uint8_t numAlarms = 0;
  24:main.c        ****     uint8_t MAX_ALARMS = 7;
  25:main.c        ****     
  26:main.c        **** void updateDisplay(struct time *newTime){
  57              		.loc 1 26 0
  58              		.cfi_startproc
  59 0000 80B5     		push	{r7, lr}
  60              		.cfi_def_cfa_offset 8
  61              		.cfi_offset 7, -8
  62              		.cfi_offset 14, -4
  63 0002 84B0     		sub	sp, sp, #16
  64              		.cfi_def_cfa_offset 24
  65 0004 00AF     		add	r7, sp, #0
  66              		.cfi_def_cfa_register 7
  67 0006 7860     		str	r0, [r7, #4]
  27:main.c        ****     
  28:main.c        ****             SelectPin_Write(1);
  68              		.loc 1 28 0
  69 0008 0120     		mov	r0, #1
  70 000a FFF7FEFF 		bl	SelectPin_Write
  29:main.c        ****             CyDelayUs(50);
  71              		.loc 1 29 0
  72 000e 3220     		mov	r0, #50
  73 0010 FFF7FEFF 		bl	CyDelayUs
  30:main.c        ****             SelectPin_Write(0);
  74              		.loc 1 30 0
  75 0014 0020     		mov	r0, #0
  76 0016 FFF7FEFF 		bl	SelectPin_Write
  31:main.c        ****             CyDelayUs(100);  
  77              		.loc 1 31 0
  78 001a 6420     		mov	r0, #100
  79 001c FFF7FEFF 		bl	CyDelayUs
  32:main.c        ****             SelectPin_Write(1);
  80              		.loc 1 32 0
  81 0020 0120     		mov	r0, #1
  82 0022 FFF7FEFF 		bl	SelectPin_Write
ARM GAS  C:\Users\Joseph\AppData\Local\Temp\ccvarZmH.s 			page 3


  33:main.c        ****             uint16_t i;
  34:main.c        ****             uint16_t mins = newTime->hour * 60 + newTime->minute;
  83              		.loc 1 34 0
  84 0026 7B68     		ldr	r3, [r7, #4]
  85 0028 9B78     		ldrb	r3, [r3, #2]
  86 002a 9BB2     		uxth	r3, r3
  87 002c 3C22     		mov	r2, #60
  88 002e 5343     		mul	r3, r2
  89 0030 99B2     		uxth	r1, r3
  90 0032 7B68     		ldr	r3, [r7, #4]
  91 0034 5B78     		ldrb	r3, [r3, #1]
  92 0036 9AB2     		uxth	r2, r3
  93 0038 0C23     		mov	r3, #12
  94 003a FB18     		add	r3, r7, r3
  95 003c 8A18     		add	r2, r1, r2
  96 003e 1A80     		strh	r2, [r3]
  35:main.c        ****             
  36:main.c        ****             printlnNum(mins,'X');
  97              		.loc 1 36 0
  98 0040 0C23     		mov	r3, #12
  99 0042 FB18     		add	r3, r7, r3
 100 0044 1B88     		ldrh	r3, [r3]
 101 0046 181C     		mov	r0, r3
 102 0048 5821     		mov	r1, #88
 103 004a FFF7FEFF 		bl	printlnNum
  37:main.c        ****             
  38:main.c        ****             for(i= 0;i<mins;i++){
 104              		.loc 1 38 0
 105 004e 0E23     		mov	r3, #14
 106 0050 FB18     		add	r3, r7, r3
 107 0052 0022     		mov	r2, #0
 108 0054 1A80     		strh	r2, [r3]
 109 0056 12E0     		b	.L2
 110              	.L3:
  39:main.c        ****                 
  40:main.c        ****             ClockPin_Write(1);
 111              		.loc 1 40 0 discriminator 3
 112 0058 0120     		mov	r0, #1
 113 005a FFF7FEFF 		bl	ClockPin_Write
  41:main.c        ****             CyDelayUs(200);
 114              		.loc 1 41 0 discriminator 3
 115 005e C820     		mov	r0, #200
 116 0060 FFF7FEFF 		bl	CyDelayUs
  42:main.c        ****             ClockPin_Write(0);
 117              		.loc 1 42 0 discriminator 3
 118 0064 0020     		mov	r0, #0
 119 0066 FFF7FEFF 		bl	ClockPin_Write
  43:main.c        ****             CyDelayUs(200);
 120              		.loc 1 43 0 discriminator 3
 121 006a C820     		mov	r0, #200
 122 006c FFF7FEFF 		bl	CyDelayUs
  38:main.c        ****                 
 123              		.loc 1 38 0 discriminator 3
 124 0070 0E23     		mov	r3, #14
 125 0072 FB18     		add	r3, r7, r3
 126 0074 1A88     		ldrh	r2, [r3]
 127 0076 0E23     		mov	r3, #14
ARM GAS  C:\Users\Joseph\AppData\Local\Temp\ccvarZmH.s 			page 4


 128 0078 FB18     		add	r3, r7, r3
 129 007a 0132     		add	r2, r2, #1
 130 007c 1A80     		strh	r2, [r3]
 131              	.L2:
  38:main.c        ****                 
 132              		.loc 1 38 0 is_stmt 0 discriminator 1
 133 007e 0E23     		mov	r3, #14
 134 0080 FA18     		add	r2, r7, r3
 135 0082 0C23     		mov	r3, #12
 136 0084 FB18     		add	r3, r7, r3
 137 0086 1288     		ldrh	r2, [r2]
 138 0088 1B88     		ldrh	r3, [r3]
 139 008a 9A42     		cmp	r2, r3
 140 008c E4D3     		bcc	.L3
  44:main.c        ****             
  45:main.c        **** 
  46:main.c        ****     }
  47:main.c        ****             //
  48:main.c        ****             ClockPin_Write(1);
 141              		.loc 1 48 0 is_stmt 1
 142 008e 0120     		mov	r0, #1
 143 0090 FFF7FEFF 		bl	ClockPin_Write
  49:main.c        ****             
  50:main.c        **** 
  51:main.c        **** }
 144              		.loc 1 51 0
 145 0094 BD46     		mov	sp, r7
 146 0096 04B0     		add	sp, sp, #16
 147              		@ sp needed
 148 0098 80BD     		pop	{r7, pc}
 149              		.cfi_endproc
 150              	.LFE34:
 151              		.size	updateDisplay, .-updateDisplay
 152 009a C046     		.section	.rodata
 153              		.align	2
 154              	.LC2:
 155 0000 696E2066 		.ascii	"in flag = -1\000"
 155      6C616720 
 155      3D202D31 
 155      00
 156 000d 000000   		.align	2
 157              	.LC9:
 158 0010 616C6172 		.ascii	"alarm Made\000"
 158      6D204D61 
 158      646500
 159              		.global	__aeabi_idivmod
 160 001b 00       		.section	.text.main,"ax",%progbits
 161              		.align	2
 162              		.global	main
 163              		.code	16
 164              		.thumb_func
 165              		.type	main, %function
 166              	main:
 167              	.LFB35:
  52:main.c        ****     
  53:main.c        **** int main()
  54:main.c        **** {
ARM GAS  C:\Users\Joseph\AppData\Local\Temp\ccvarZmH.s 			page 5


 168              		.loc 1 54 0
 169              		.cfi_startproc
 170 0000 90B5     		push	{r4, r7, lr}
 171              		.cfi_def_cfa_offset 12
 172              		.cfi_offset 4, -12
 173              		.cfi_offset 7, -8
 174              		.cfi_offset 14, -4
 175 0002 99B0     		sub	sp, sp, #100
 176              		.cfi_def_cfa_offset 112
 177 0004 00AF     		add	r7, sp, #0
 178              		.cfi_def_cfa_register 7
  55:main.c        ****     CyDelay(1000);
 179              		.loc 1 55 0
 180 0006 FA23     		mov	r3, #250
 181 0008 9B00     		lsl	r3, r3, #2
 182 000a 181C     		mov	r0, r3
 183 000c FFF7FEFF 		bl	CyDelay
  56:main.c        ****     
  57:main.c        ****     /* Place your initialization/startup code here (e.g. MyInst_Start()) */
  58:main.c        ****     I2C_Start();
 184              		.loc 1 58 0
 185 0010 FFF7FEFF 		bl	I2C_Start
  59:main.c        ****     
  60:main.c        ****     
  61:main.c        ****     UART_1_SetCustomInterruptHandler(ReceiveISR);
 186              		.loc 1 61 0
 187 0014 E64B     		ldr	r3, .L22
 188 0016 181C     		mov	r0, r3
 189 0018 FFF7FEFF 		bl	UART_1_SetCustomInterruptHandler
  62:main.c        **** 
  63:main.c        ****     UART_1_Start();   
 190              		.loc 1 63 0
 191 001c FFF7FEFF 		bl	UART_1_Start
  64:main.c        ****     
  65:main.c        **** 
  66:main.c        ****     CyGlobalIntEnable;  /* Uncomment this line to enable global interrupts. */
 192              		.loc 1 66 0
 193              	@ 66 "main.c" 1
 194 0020 62B6     		CPSIE   i
 195              	@ 0 "" 2
  67:main.c        ****     
  68:main.c        ****     
  69:main.c        ****     //  check that rtc is in battery backup mode
  70:main.c        ****     uint8 control3 = readReg(CONTROL_REG_3) ;
 196              		.loc 1 70 0
 197              		.code	16
 198 0022 5F23     		mov	r3, #95
 199 0024 FC18     		add	r4, r7, r3
 200 0026 0220     		mov	r0, #2
 201 0028 FFF7FEFF 		bl	readReg
 202 002c 031C     		mov	r3, r0
 203 002e 2370     		strb	r3, [r4]
  71:main.c        ****     if((control3 >>4) != 0xA){
 204              		.loc 1 71 0
 205 0030 5F23     		mov	r3, #95
 206 0032 FB18     		add	r3, r7, r3
 207 0034 1B78     		ldrb	r3, [r3]
ARM GAS  C:\Users\Joseph\AppData\Local\Temp\ccvarZmH.s 			page 6


 208 0036 1B09     		lsr	r3, r3, #4
 209 0038 DBB2     		uxtb	r3, r3
 210 003a 0A2B     		cmp	r3, #10
 211 003c 2CD0     		beq	.L5
 212              	.LBB2:
  72:main.c        ****         Pin_3_Write(1);
 213              		.loc 1 72 0
 214 003e 0120     		mov	r0, #1
 215 0040 FFF7FEFF 		bl	Pin_3_Write
  73:main.c        ****         CyDelay(1000);
 216              		.loc 1 73 0
 217 0044 FA23     		mov	r3, #250
 218 0046 9B00     		lsl	r3, r3, #2
 219 0048 181C     		mov	r0, r3
 220 004a FFF7FEFF 		bl	CyDelay
  74:main.c        ****         Pin_3_Write(0);
 221              		.loc 1 74 0
 222 004e 0020     		mov	r0, #0
 223 0050 FFF7FEFF 		bl	Pin_3_Write
  75:main.c        ****         CyDelay(1000);
 224              		.loc 1 75 0
 225 0054 FA23     		mov	r3, #250
 226 0056 9B00     		lsl	r3, r3, #2
 227 0058 181C     		mov	r0, r3
 228 005a FFF7FEFF 		bl	CyDelay
  76:main.c        ****         Pin_3_Write(1);
 229              		.loc 1 76 0
 230 005e 0120     		mov	r0, #1
 231 0060 FFF7FEFF 		bl	Pin_3_Write
  77:main.c        ****         CyDelay(1000);
 232              		.loc 1 77 0
 233 0064 FA23     		mov	r3, #250
 234 0066 9B00     		lsl	r3, r3, #2
 235 0068 181C     		mov	r0, r3
 236 006a FFF7FEFF 		bl	CyDelay
  78:main.c        ****         Pin_3_Write(0);
 237              		.loc 1 78 0
 238 006e 0020     		mov	r0, #0
 239 0070 FFF7FEFF 		bl	Pin_3_Write
  79:main.c        ****         
  80:main.c        ****         //printlnNum(control3,'X');
  81:main.c        ****         //changeHourMode(EVERYTHING_ENABLED);
  82:main.c        ****         uint8_t registerValue = 0xA0;// write 1010 to PM bits which enable directSwitching and disa
 240              		.loc 1 82 0
 241 0074 4F23     		mov	r3, #79
 242 0076 FB18     		add	r3, r7, r3
 243 0078 A022     		mov	r2, #160
 244 007a 1A70     		strb	r2, [r3]
  83:main.c        ****         writeReg(CONTROL_REG_3,registerValue); 
 245              		.loc 1 83 0
 246 007c 4F23     		mov	r3, #79
 247 007e FB18     		add	r3, r7, r3
 248 0080 1B78     		ldrb	r3, [r3]
 249 0082 0220     		mov	r0, #2
 250 0084 191C     		mov	r1, r3
 251 0086 FFF7FEFF 		bl	writeReg
  84:main.c        ****         control3 = readReg(CONTROL_REG_3);
ARM GAS  C:\Users\Joseph\AppData\Local\Temp\ccvarZmH.s 			page 7


 252              		.loc 1 84 0
 253 008a 5F23     		mov	r3, #95
 254 008c FC18     		add	r4, r7, r3
 255 008e 0220     		mov	r0, #2
 256 0090 FFF7FEFF 		bl	readReg
 257 0094 031C     		mov	r3, r0
 258 0096 2370     		strb	r3, [r4]
 259              	.L5:
 260              	.LBE2:
  85:main.c        ****        // printlnNum(control3,'X');
  86:main.c        ****         //UART_1_UartPutString("Error: Baterry backup did not work\n\r");
  87:main.c        ****     }
  88:main.c        ****     
  89:main.c        ****     if((control3 & 0x0F) != 0){
 261              		.loc 1 89 0
 262 0098 5F23     		mov	r3, #95
 263 009a FB18     		add	r3, r7, r3
 264 009c 1B78     		ldrb	r3, [r3]
 265 009e 0F22     		mov	r2, #15
 266 00a0 1340     		and	r3, r2
 267 00a2 15D0     		beq	.L6
  90:main.c        ****         Pin_2_Write(1);
 268              		.loc 1 90 0
 269 00a4 0120     		mov	r0, #1
 270 00a6 FFF7FEFF 		bl	Pin_2_Write
  91:main.c        ****         CyDelay(2000);
 271              		.loc 1 91 0
 272 00aa FA23     		mov	r3, #250
 273 00ac DB00     		lsl	r3, r3, #3
 274 00ae 181C     		mov	r0, r3
 275 00b0 FFF7FEFF 		bl	CyDelay
  92:main.c        ****         Pin_2_Write(0);
 276              		.loc 1 92 0
 277 00b4 0020     		mov	r0, #0
 278 00b6 FFF7FEFF 		bl	Pin_2_Write
  93:main.c        ****         
  94:main.c        ****         //printlnNum(control3,'X');
  95:main.c        **** 
  96:main.c        **** 
  97:main.c        ****         writeReg(CONTROL_REG_3,0xA0); 
 279              		.loc 1 97 0
 280 00ba 0220     		mov	r0, #2
 281 00bc A021     		mov	r1, #160
 282 00be FFF7FEFF 		bl	writeReg
  98:main.c        ****         control3 = readReg(CONTROL_REG_3);
 283              		.loc 1 98 0
 284 00c2 5F23     		mov	r3, #95
 285 00c4 FC18     		add	r4, r7, r3
 286 00c6 0220     		mov	r0, #2
 287 00c8 FFF7FEFF 		bl	readReg
 288 00cc 031C     		mov	r3, r0
 289 00ce 2370     		strb	r3, [r4]
 290              	.L6:
  99:main.c        ****         //printlnNum(control3,'X');
 100:main.c        ****         //UART_1_UartPutString("Note: Power was lost. Battery backup successfull!\n\r");
 101:main.c        ****     
 102:main.c        ****     }
ARM GAS  C:\Users\Joseph\AppData\Local\Temp\ccvarZmH.s 			page 8


 103:main.c        ****     
 104:main.c        ****     
 105:main.c        **** 
 106:main.c        ****     
 107:main.c        ****     struct time currentTime;
 108:main.c        ****     //currentTime.second = 21;
 109:main.c        ****     uint8 hour;
 110:main.c        ****     uint8 seconds;
 111:main.c        ****     uint8 minutes;
 112:main.c        ****     
 113:main.c        ****     
 114:main.c        ****     currentTime.year =18;
 291              		.loc 1 114 0
 292 00d0 4023     		mov	r3, #64
 293 00d2 FB18     		add	r3, r7, r3
 294 00d4 1222     		mov	r2, #18
 295 00d6 9A71     		strb	r2, [r3, #6]
 115:main.c        ****     currentTime.month=1;
 296              		.loc 1 115 0
 297 00d8 4023     		mov	r3, #64
 298 00da FB18     		add	r3, r7, r3
 299 00dc 0122     		mov	r2, #1
 300 00de 5A71     		strb	r2, [r3, #5]
 116:main.c        ****     currentTime.day = 6;
 301              		.loc 1 116 0
 302 00e0 4023     		mov	r3, #64
 303 00e2 FB18     		add	r3, r7, r3
 304 00e4 0622     		mov	r2, #6
 305 00e6 DA70     		strb	r2, [r3, #3]
 117:main.c        ****     currentTime.weekday = SATURDAY;
 306              		.loc 1 117 0
 307 00e8 4023     		mov	r3, #64
 308 00ea FB18     		add	r3, r7, r3
 309 00ec 0622     		mov	r2, #6
 310 00ee 1A71     		strb	r2, [r3, #4]
 118:main.c        ****     currentTime.hour = 20;
 311              		.loc 1 118 0
 312 00f0 4023     		mov	r3, #64
 313 00f2 FB18     		add	r3, r7, r3
 314 00f4 1422     		mov	r2, #20
 315 00f6 9A70     		strb	r2, [r3, #2]
 119:main.c        ****     currentTime.minute=19;
 316              		.loc 1 119 0
 317 00f8 4023     		mov	r3, #64
 318 00fa FB18     		add	r3, r7, r3
 319 00fc 1322     		mov	r2, #19
 320 00fe 5A70     		strb	r2, [r3, #1]
 120:main.c        ****     currentTime.second = 0;
 321              		.loc 1 120 0
 322 0100 4023     		mov	r3, #64
 323 0102 FB18     		add	r3, r7, r3
 324 0104 0022     		mov	r2, #0
 325 0106 1A70     		strb	r2, [r3]
 121:main.c        ****     
 122:main.c        ****     struct time alarm;
 123:main.c        ****     uint8_t alarmState = 0; 
 326              		.loc 1 123 0
ARM GAS  C:\Users\Joseph\AppData\Local\Temp\ccvarZmH.s 			page 9


 327 0108 5E23     		mov	r3, #94
 328 010a FB18     		add	r3, r7, r3
 329 010c 0022     		mov	r2, #0
 330 010e 1A70     		strb	r2, [r3]
 124:main.c        **** //    createAlarmTEST(&alarm,0xFF,30);
 125:main.c        **** //    
 126:main.c        **** //    alarms[numAlarms] = alarm;
 127:main.c        **** //    numAlarms++;
 128:main.c        **** //    
 129:main.c        **** //    
 130:main.c        **** //    createAlarmTEST(&alarm,0xFF,0);
 131:main.c        **** //    
 132:main.c        **** //    alarms[numAlarms] = alarm;
 133:main.c        **** //    numAlarms++;
 134:main.c        ****     struct time displayTime;
 135:main.c        ****     
 136:main.c        ****     createAlarmTEST(&displayTime,0xFF,0); // make an alarm to update display every second
 331              		.loc 1 136 0
 332 0110 3023     		mov	r3, #48
 333 0112 FB18     		add	r3, r7, r3
 334 0114 181C     		mov	r0, r3
 335 0116 FF21     		mov	r1, #255
 336 0118 0022     		mov	r2, #0
 337 011a FFF7FEFF 		bl	createAlarmTEST
 137:main.c        ****     uint8_t displayState = 0;
 338              		.loc 1 137 0
 339 011e 5D23     		mov	r3, #93
 340 0120 FB18     		add	r3, r7, r3
 341 0122 0022     		mov	r2, #0
 342 0124 1A70     		strb	r2, [r3]
 138:main.c        ****     
 139:main.c        ****     
 140:main.c        ****     struct time displayTestAlarm;
 141:main.c        ****     createAlarmTEST(&displayTestAlarm,0xFF,30);
 343              		.loc 1 141 0
 344 0126 2823     		mov	r3, #40
 345 0128 FB18     		add	r3, r7, r3
 346 012a 181C     		mov	r0, r3
 347 012c FF21     		mov	r1, #255
 348 012e 1E22     		mov	r2, #30
 349 0130 FFF7FEFF 		bl	createAlarmTEST
 142:main.c        ****     uint8_t fullUpdateState = 0;
 350              		.loc 1 142 0
 351 0134 4E23     		mov	r3, #78
 352 0136 FB18     		add	r3, r7, r3
 353 0138 0022     		mov	r2, #0
 354 013a 1A70     		strb	r2, [r3]
 143:main.c        ****     
 144:main.c        ****     struct time calibrateTimeAlarm;
 145:main.c        ****     uint8_t calibrateTimeState = 0;
 355              		.loc 1 145 0
 356 013c 5C23     		mov	r3, #92
 357 013e FB18     		add	r3, r7, r3
 358 0140 0022     		mov	r2, #0
 359 0142 1A70     		strb	r2, [r3]
 146:main.c        ****     
 147:main.c        ****     // set clock to update time at 3:25:25
ARM GAS  C:\Users\Joseph\AppData\Local\Temp\ccvarZmH.s 			page 10


 148:main.c        **** //    calibrateTimeAlarm.year    = 0xFF;
 149:main.c        **** //    calibrateTimeAlarm.month   = 0xFF;
 150:main.c        **** //    calibrateTimeAlarm.day     = 0xFF;
 151:main.c        **** //    calibrateTimeAlarm.weekday = 0xFF;
 152:main.c        **** //    calibrateTimeAlarm.hour    = 3;
 153:main.c        **** //    calibrateTimeAlarm.minute  = 25;
 154:main.c        **** //    calibrateTimeAlarm.second  = 25;
 155:main.c        ****     createAlarmTEST(&calibrateTimeAlarm,0xFF,25);
 360              		.loc 1 155 0
 361 0144 2023     		mov	r3, #32
 362 0146 FB18     		add	r3, r7, r3
 363 0148 181C     		mov	r0, r3
 364 014a FF21     		mov	r1, #255
 365 014c 1922     		mov	r2, #25
 366 014e FFF7FEFF 		bl	createAlarmTEST
 156:main.c        ****     
 157:main.c        ****     //struct time alarm2;
 158:main.c        ****     //setTime(&currentTime);
 159:main.c        ****     int count = 0;
 367              		.loc 1 159 0
 368 0152 0023     		mov	r3, #0
 369 0154 BB65     		str	r3, [r7, #88]
 160:main.c        **** //    
 161:main.c        **** //   
 162:main.c        **** //    getTime(&currentTime);
 163:main.c        **** //            SelectPin_Write(0);
 164:main.c        **** //            SelectPin_Write(1);
 165:main.c        **** //            uint16_t i;
 166:main.c        **** //            uint16_t mins = currentTime.hour * 60 + currentTime.minute;
 167:main.c        **** //            for(i= 0;i<mins;i++){
 168:main.c        **** //    
 169:main.c        **** //            ClockPin_Write(0);
 170:main.c        **** //            CyDelayUs(1);
 171:main.c        **** //            ClockPin_Write(1);
 172:main.c        **** //    }
 173:main.c        ****     getTime(&currentTime);
 370              		.loc 1 173 0
 371 0156 4023     		mov	r3, #64
 372 0158 FB18     		add	r3, r7, r3
 373 015a 181C     		mov	r0, r3
 374 015c FFF7FEFF 		bl	getTime
 174:main.c        ****     updateDisplay(&currentTime);
 375              		.loc 1 174 0
 376 0160 4023     		mov	r3, #64
 377 0162 FB18     		add	r3, r7, r3
 378 0164 181C     		mov	r0, r3
 379 0166 FFF7FEFF 		bl	updateDisplay
 380              	.L21:
 381              	.LBB3:
 175:main.c        **** for(;;)
 176:main.c        ****     { 
 177:main.c        ****         
 178:main.c        **** 
 179:main.c        ****            
 180:main.c        **** //        hour = getHours();
 181:main.c        **** //        seconds = getSec();
 182:main.c        **** //        minutes = getMin();
ARM GAS  C:\Users\Joseph\AppData\Local\Temp\ccvarZmH.s 			page 11


 183:main.c        **** 
 184:main.c        **** 
 185:main.c        **** //        getTime(&currentTime);
 186:main.c        **** //        char check = (checkAlarm(&currentTime,&alarm));
 187:main.c        **** //        if(!check){
 188:main.c        **** //        Pin_3_Write(1);
 189:main.c        **** //        CyDelay(1000);
 190:main.c        **** //        Pin_3_Write(0);
 191:main.c        **** //        }
 192:main.c        **** 
 193:main.c        ****         if(ReceiveFlag == -1){
 382              		.loc 1 193 0
 383 016a 924B     		ldr	r3, .L22+4
 384 016c 1B78     		ldrb	r3, [r3]
 385 016e DBB2     		uxtb	r3, r3
 386 0170 5BB2     		sxtb	r3, r3
 387 0172 0133     		add	r3, r3, #1
 388 0174 00D0     		beq	.LCB268
 389 0176 A7E0     		b	.L7	@long jump
 390              	.LCB268:
 194:main.c        ****             UART_1_UartPutString("in flag = -1");
 391              		.loc 1 194 0
 392 0178 8F4B     		ldr	r3, .L22+8
 393 017a 181C     		mov	r0, r3
 394 017c FFF7FEFF 		bl	UART_1_UartPutString
 195:main.c        ****                 Pin_2_Write(1);
 395              		.loc 1 195 0
 396 0180 0120     		mov	r0, #1
 397 0182 FFF7FEFF 		bl	Pin_2_Write
 196:main.c        ****                 CyDelay(ledDelay);
 398              		.loc 1 196 0
 399 0186 8D4B     		ldr	r3, .L22+12
 400 0188 1B78     		ldrb	r3, [r3]
 401 018a 181C     		mov	r0, r3
 402 018c FFF7FEFF 		bl	CyDelay
 197:main.c        ****                 Pin_2_Write(0);
 403              		.loc 1 197 0
 404 0190 0020     		mov	r0, #0
 405 0192 FFF7FEFF 		bl	Pin_2_Write
 198:main.c        ****             if((dataIn[0]&0xC0) == 0x00){
 406              		.loc 1 198 0
 407 0196 8A4B     		ldr	r3, .L22+16
 408 0198 1B78     		ldrb	r3, [r3]
 409 019a DBB2     		uxtb	r3, r3
 410 019c 1A1C     		mov	r2, r3
 411 019e C023     		mov	r3, #192
 412 01a0 1340     		and	r3, r2
 413 01a2 59D1     		bne	.L8
 414              	.LBB4:
 199:main.c        ****                 Pin_1_Write(1);
 415              		.loc 1 199 0
 416 01a4 0120     		mov	r0, #1
 417 01a6 FFF7FEFF 		bl	Pin_1_Write
 200:main.c        ****                 CyDelay(ledDelay);
 418              		.loc 1 200 0
 419 01aa 844B     		ldr	r3, .L22+12
 420 01ac 1B78     		ldrb	r3, [r3]
ARM GAS  C:\Users\Joseph\AppData\Local\Temp\ccvarZmH.s 			page 12


 421 01ae 181C     		mov	r0, r3
 422 01b0 FFF7FEFF 		bl	CyDelay
 201:main.c        ****                 Pin_1_Write(0);
 423              		.loc 1 201 0
 424 01b4 0020     		mov	r0, #0
 425 01b6 FFF7FEFF 		bl	Pin_1_Write
 202:main.c        ****                 
 203:main.c        ****               
 204:main.c        ****                 
 205:main.c        ****             uint8 min = dataIn[0];
 426              		.loc 1 205 0
 427 01ba 4D23     		mov	r3, #77
 428 01bc FB18     		add	r3, r7, r3
 429 01be 804A     		ldr	r2, .L22+16
 430 01c0 1278     		ldrb	r2, [r2]
 431 01c2 1A70     		strb	r2, [r3]
 206:main.c        ****             uint8 wk  = (dataIn[2]);
 432              		.loc 1 206 0
 433 01c4 4C23     		mov	r3, #76
 434 01c6 FB18     		add	r3, r7, r3
 435 01c8 7D4A     		ldr	r2, .L22+16
 436 01ca 9278     		ldrb	r2, [r2, #2]
 437 01cc 1A70     		strb	r2, [r3]
 207:main.c        ****             uint8 hour = dataIn[1];
 438              		.loc 1 207 0
 439 01ce 4B23     		mov	r3, #75
 440 01d0 FB18     		add	r3, r7, r3
 441 01d2 7B4A     		ldr	r2, .L22+16
 442 01d4 5278     		ldrb	r2, [r2, #1]
 443 01d6 1A70     		strb	r2, [r3]
 208:main.c        ****             
 209:main.c        ****             printlnNum(min,'X');
 444              		.loc 1 209 0
 445 01d8 4D23     		mov	r3, #77
 446 01da FB18     		add	r3, r7, r3
 447 01dc 1B78     		ldrb	r3, [r3]
 448 01de 9BB2     		uxth	r3, r3
 449 01e0 181C     		mov	r0, r3
 450 01e2 5821     		mov	r1, #88
 451 01e4 FFF7FEFF 		bl	printlnNum
 210:main.c        ****             printlnNum(hour,'X');
 452              		.loc 1 210 0
 453 01e8 4B23     		mov	r3, #75
 454 01ea FB18     		add	r3, r7, r3
 455 01ec 1B78     		ldrb	r3, [r3]
 456 01ee 9BB2     		uxth	r3, r3
 457 01f0 181C     		mov	r0, r3
 458 01f2 5821     		mov	r1, #88
 459 01f4 FFF7FEFF 		bl	printlnNum
 211:main.c        ****             printlnNum(wk,'X');
 460              		.loc 1 211 0
 461 01f8 4C23     		mov	r3, #76
 462 01fa FB18     		add	r3, r7, r3
 463 01fc 1B78     		ldrb	r3, [r3]
 464 01fe 9BB2     		uxth	r3, r3
 465 0200 181C     		mov	r0, r3
 466 0202 5821     		mov	r1, #88
ARM GAS  C:\Users\Joseph\AppData\Local\Temp\ccvarZmH.s 			page 13


 467 0204 FFF7FEFF 		bl	printlnNum
 212:main.c        ****             
 213:main.c        ****             createAlarm(&alarm,wk,hour,min);
 468              		.loc 1 213 0
 469 0208 3823     		mov	r3, #56
 470 020a F818     		add	r0, r7, r3
 471 020c 4C23     		mov	r3, #76
 472 020e FB18     		add	r3, r7, r3
 473 0210 1978     		ldrb	r1, [r3]
 474 0212 4B23     		mov	r3, #75
 475 0214 FB18     		add	r3, r7, r3
 476 0216 1A78     		ldrb	r2, [r3]
 477 0218 4D23     		mov	r3, #77
 478 021a FB18     		add	r3, r7, r3
 479 021c 1B78     		ldrb	r3, [r3]
 480 021e FFF7FEFF 		bl	createAlarm
 214:main.c        ****             
 215:main.c        ****             // if number of alarms is greater than 7 start overwriting previous alarms
 216:main.c        ****             if(numAlarms == MAX_ALARMS){
 481              		.loc 1 216 0
 482 0222 684B     		ldr	r3, .L22+20
 483 0224 1A78     		ldrb	r2, [r3]
 484 0226 684B     		ldr	r3, .L22+24
 485 0228 1B78     		ldrb	r3, [r3]
 486 022a 9A42     		cmp	r2, r3
 487 022c 02D1     		bne	.L9
 217:main.c        ****             
 218:main.c        ****                 numAlarms = 0;
 488              		.loc 1 218 0
 489 022e 654B     		ldr	r3, .L22+20
 490 0230 0022     		mov	r2, #0
 491 0232 1A70     		strb	r2, [r3]
 492              	.L9:
 219:main.c        ****             }
 220:main.c        ****             alarms[numAlarms] = &alarm; 
 493              		.loc 1 220 0
 494 0234 634B     		ldr	r3, .L22+20
 495 0236 1B78     		ldrb	r3, [r3]
 496 0238 1A1C     		mov	r2, r3
 497 023a 644B     		ldr	r3, .L22+28
 498 023c 9200     		lsl	r2, r2, #2
 499 023e 3821     		mov	r1, #56
 500 0240 7918     		add	r1, r7, r1
 501 0242 D150     		str	r1, [r2, r3]
 221:main.c        ****             numAlarms += 1;  
 502              		.loc 1 221 0
 503 0244 5F4B     		ldr	r3, .L22+20
 504 0246 1B78     		ldrb	r3, [r3]
 505 0248 0133     		add	r3, r3, #1
 506 024a DAB2     		uxtb	r2, r3
 507 024c 5D4B     		ldr	r3, .L22+20
 508 024e 1A70     		strb	r2, [r3]
 222:main.c        ****             
 223:main.c        ****             UART_1_UartPutString("alarm Made");
 509              		.loc 1 223 0
 510 0250 5F4B     		ldr	r3, .L22+32
 511 0252 181C     		mov	r0, r3
ARM GAS  C:\Users\Joseph\AppData\Local\Temp\ccvarZmH.s 			page 14


 512 0254 FFF7FEFF 		bl	UART_1_UartPutString
 513              	.L8:
 514              	.LBE4:
 224:main.c        ****             
 225:main.c        ****             }
 226:main.c        ****             
 227:main.c        ****             if((dataIn[0]&0xC0) == 0xC0){
 515              		.loc 1 227 0
 516 0258 594B     		ldr	r3, .L22+16
 517 025a 1B78     		ldrb	r3, [r3]
 518 025c DBB2     		uxtb	r3, r3
 519 025e 1A1C     		mov	r2, r3
 520 0260 C023     		mov	r3, #192
 521 0262 1340     		and	r3, r2
 522 0264 C02B     		cmp	r3, #192
 523 0266 2CD1     		bne	.L10
 524              	.LBB5:
 228:main.c        ****                 Pin_4_Write(1);
 525              		.loc 1 228 0
 526 0268 0120     		mov	r0, #1
 527 026a FFF7FEFF 		bl	Pin_4_Write
 229:main.c        ****                 CyDelay(ledDelay);
 528              		.loc 1 229 0
 529 026e 534B     		ldr	r3, .L22+12
 530 0270 1B78     		ldrb	r3, [r3]
 531 0272 181C     		mov	r0, r3
 532 0274 FFF7FEFF 		bl	CyDelay
 230:main.c        ****                 Pin_4_Write(0);
 533              		.loc 1 230 0
 534 0278 0020     		mov	r0, #0
 535 027a FFF7FEFF 		bl	Pin_4_Write
 231:main.c        ****             
 232:main.c        ****                 uint8_t mins = dataIn[1];
 536              		.loc 1 232 0
 537 027e 4A23     		mov	r3, #74
 538 0280 FB18     		add	r3, r7, r3
 539 0282 4F4A     		ldr	r2, .L22+16
 540 0284 5278     		ldrb	r2, [r2, #1]
 541 0286 1A70     		strb	r2, [r3]
 233:main.c        ****                 setMin(mins);
 542              		.loc 1 233 0
 543 0288 4A23     		mov	r3, #74
 544 028a FB18     		add	r3, r7, r3
 545 028c 1B78     		ldrb	r3, [r3]
 546 028e 181C     		mov	r0, r3
 547 0290 FFF7FEFF 		bl	setMin
 234:main.c        ****                 uint8_t secs = dataIn[0] &= 0x3F; // 0011 1111
 548              		.loc 1 234 0
 549 0294 4A4B     		ldr	r3, .L22+16
 550 0296 1B78     		ldrb	r3, [r3]
 551 0298 DBB2     		uxtb	r3, r3
 552 029a 3F22     		mov	r2, #63
 553 029c 1340     		and	r3, r2
 554 029e DAB2     		uxtb	r2, r3
 555 02a0 474B     		ldr	r3, .L22+16
 556 02a2 111C     		add	r1, r2, #0
 557 02a4 1970     		strb	r1, [r3]
ARM GAS  C:\Users\Joseph\AppData\Local\Temp\ccvarZmH.s 			page 15


 558 02a6 4923     		mov	r3, #73
 559 02a8 FB18     		add	r3, r7, r3
 560 02aa 1A70     		strb	r2, [r3]
 235:main.c        ****                 setSec(secs);
 561              		.loc 1 235 0
 562 02ac 4923     		mov	r3, #73
 563 02ae FB18     		add	r3, r7, r3
 564 02b0 1B78     		ldrb	r3, [r3]
 565 02b2 181C     		mov	r0, r3
 566 02b4 FFF7FEFF 		bl	setSec
 236:main.c        ****                 updateDisplay(&currentTime);
 567              		.loc 1 236 0
 568 02b8 4023     		mov	r3, #64
 569 02ba FB18     		add	r3, r7, r3
 570 02bc 181C     		mov	r0, r3
 571 02be FFF7FEFF 		bl	updateDisplay
 572              	.L10:
 573              	.LBE5:
 237:main.c        ****             }
 238:main.c        ****             ReceiveFlag =0;
 574              		.loc 1 238 0
 575 02c2 3C4B     		ldr	r3, .L22+4
 576 02c4 0022     		mov	r2, #0
 577 02c6 1A70     		strb	r2, [r3]
 578              	.L7:
 239:main.c        ****         }
 240:main.c        ****         getTime(&currentTime);
 579              		.loc 1 240 0
 580 02c8 4023     		mov	r3, #64
 581 02ca FB18     		add	r3, r7, r3
 582 02cc 181C     		mov	r0, r3
 583 02ce FFF7FEFF 		bl	getTime
 241:main.c        ****         
 242:main.c        ****         uint8_t check = 255; // 0 if the time matches an alarm, otherwise value>0
 584              		.loc 1 242 0
 585 02d2 5723     		mov	r3, #87
 586 02d4 FB18     		add	r3, r7, r3
 587 02d6 FF22     		mov	r2, #255
 588 02d8 1A70     		strb	r2, [r3]
 243:main.c        ****         int i;
 244:main.c        ****         for(i = 0; i <numAlarms; i++){
 589              		.loc 1 244 0
 590 02da 0023     		mov	r3, #0
 591 02dc 3B65     		str	r3, [r7, #80]
 592 02de 12E0     		b	.L11
 593              	.L13:
 245:main.c        ****            
 246:main.c        ****             if(!(checkAlarm(&currentTime,alarms[i]))){
 594              		.loc 1 246 0
 595 02e0 3A4B     		ldr	r3, .L22+28
 596 02e2 3A6D     		ldr	r2, [r7, #80]
 597 02e4 9200     		lsl	r2, r2, #2
 598 02e6 D358     		ldr	r3, [r2, r3]
 599 02e8 4022     		mov	r2, #64
 600 02ea BA18     		add	r2, r7, r2
 601 02ec 101C     		mov	r0, r2
 602 02ee 191C     		mov	r1, r3
ARM GAS  C:\Users\Joseph\AppData\Local\Temp\ccvarZmH.s 			page 16


 603 02f0 FFF7FEFF 		bl	checkAlarm
 604 02f4 031E     		sub	r3, r0, #0
 605 02f6 03D1     		bne	.L12
 247:main.c        ****             
 248:main.c        ****                 check = 0;
 606              		.loc 1 248 0
 607 02f8 5723     		mov	r3, #87
 608 02fa FB18     		add	r3, r7, r3
 609 02fc 0022     		mov	r2, #0
 610 02fe 1A70     		strb	r2, [r3]
 611              	.L12:
 244:main.c        ****            
 612              		.loc 1 244 0 discriminator 2
 613 0300 3B6D     		ldr	r3, [r7, #80]
 614 0302 0133     		add	r3, r3, #1
 615 0304 3B65     		str	r3, [r7, #80]
 616              	.L11:
 244:main.c        ****            
 617              		.loc 1 244 0 is_stmt 0 discriminator 1
 618 0306 2F4B     		ldr	r3, .L22+20
 619 0308 1B78     		ldrb	r3, [r3]
 620 030a 1A1E     		sub	r2, r3, #0
 621 030c 3B6D     		ldr	r3, [r7, #80]
 622 030e 9A42     		cmp	r2, r3
 623 0310 E6DC     		bgt	.L13
 249:main.c        ****             }
 250:main.c        ****             
 251:main.c        ****         }
 252:main.c        ****         
 253:main.c        ****         if(!check && !alarmState){
 624              		.loc 1 253 0 is_stmt 1
 625 0312 5723     		mov	r3, #87
 626 0314 FB18     		add	r3, r7, r3
 627 0316 1B78     		ldrb	r3, [r3]
 628 0318 002B     		cmp	r3, #0
 629 031a 1DD1     		bne	.L14
 630              		.loc 1 253 0 is_stmt 0 discriminator 1
 631 031c 5E23     		mov	r3, #94
 632 031e FB18     		add	r3, r7, r3
 633 0320 1B78     		ldrb	r3, [r3]
 634 0322 002B     		cmp	r3, #0
 635 0324 18D1     		bne	.L14
 254:main.c        ****             check = 255;
 636              		.loc 1 254 0 is_stmt 1
 637 0326 5723     		mov	r3, #87
 638 0328 FB18     		add	r3, r7, r3
 639 032a FF22     		mov	r2, #255
 640 032c 1A70     		strb	r2, [r3]
 255:main.c        ****             alarmState = 1;
 641              		.loc 1 255 0
 642 032e 5E23     		mov	r3, #94
 643 0330 FB18     		add	r3, r7, r3
 644 0332 0122     		mov	r2, #1
 645 0334 1A70     		strb	r2, [r3]
 256:main.c        ****         Pin_5_Write(1);
 646              		.loc 1 256 0
 647 0336 0120     		mov	r0, #1
ARM GAS  C:\Users\Joseph\AppData\Local\Temp\ccvarZmH.s 			page 17


 648 0338 FFF7FEFF 		bl	Pin_5_Write
 257:main.c        ****         AlarmInterrupt_Write(0);
 649              		.loc 1 257 0
 650 033c 0020     		mov	r0, #0
 651 033e FFF7FEFF 		bl	AlarmInterrupt_Write
 258:main.c        ****         CyDelay(ledDelay);
 652              		.loc 1 258 0
 653 0342 1E4B     		ldr	r3, .L22+12
 654 0344 1B78     		ldrb	r3, [r3]
 655 0346 181C     		mov	r0, r3
 656 0348 FFF7FEFF 		bl	CyDelay
 259:main.c        ****         Pin_5_Write(0);
 657              		.loc 1 259 0
 658 034c 0020     		mov	r0, #0
 659 034e FFF7FEFF 		bl	Pin_5_Write
 260:main.c        ****         AlarmInterrupt_Write(1);
 660              		.loc 1 260 0
 661 0352 0120     		mov	r0, #1
 662 0354 FFF7FEFF 		bl	AlarmInterrupt_Write
 663              	.L14:
 261:main.c        ****         }
 262:main.c        ****         if(check && alarmState){
 664              		.loc 1 262 0
 665 0358 5723     		mov	r3, #87
 666 035a FB18     		add	r3, r7, r3
 667 035c 1B78     		ldrb	r3, [r3]
 668 035e 002B     		cmp	r3, #0
 669 0360 08D0     		beq	.L15
 670              		.loc 1 262 0 is_stmt 0 discriminator 1
 671 0362 5E23     		mov	r3, #94
 672 0364 FB18     		add	r3, r7, r3
 673 0366 1B78     		ldrb	r3, [r3]
 674 0368 002B     		cmp	r3, #0
 675 036a 03D0     		beq	.L15
 263:main.c        ****             alarmState = 0;
 676              		.loc 1 263 0 is_stmt 1
 677 036c 5E23     		mov	r3, #94
 678 036e FB18     		add	r3, r7, r3
 679 0370 0022     		mov	r2, #0
 680 0372 1A70     		strb	r2, [r3]
 681              	.L15:
 264:main.c        ****         }
 265:main.c        ****         
 266:main.c        ****         if(!(checkAlarm(&currentTime, &calibrateTimeAlarm)) && !calibrateTimeState){
 682              		.loc 1 266 0
 683 0374 4023     		mov	r3, #64
 684 0376 FA18     		add	r2, r7, r3
 685 0378 2023     		mov	r3, #32
 686 037a FB18     		add	r3, r7, r3
 687 037c 101C     		mov	r0, r2
 688 037e 191C     		mov	r1, r3
 689 0380 FFF7FEFF 		bl	checkAlarm
 690 0384 031E     		sub	r3, r0, #0
 691 0386 25D1     		bne	.L16
 692              		.loc 1 266 0 is_stmt 0 discriminator 1
 693 0388 5C23     		mov	r3, #92
 694 038a FB18     		add	r3, r7, r3
ARM GAS  C:\Users\Joseph\AppData\Local\Temp\ccvarZmH.s 			page 18


 695 038c 1B78     		ldrb	r3, [r3]
 696 038e 002B     		cmp	r3, #0
 697 0390 20D1     		bne	.L16
 267:main.c        ****         calibrateTimeState = 1;
 698              		.loc 1 267 0 is_stmt 1
 699 0392 5C23     		mov	r3, #92
 700 0394 FB18     		add	r3, r7, r3
 701 0396 0122     		mov	r2, #1
 702 0398 1A70     		strb	r2, [r3]
 268:main.c        ****         CalibrateInterrupt_Write(0);
 703              		.loc 1 268 0
 704 039a 0020     		mov	r0, #0
 705 039c FFF7FEFF 		bl	CalibrateInterrupt_Write
 269:main.c        ****          CyDelay(1);
 706              		.loc 1 269 0
 707 03a0 0120     		mov	r0, #1
 708 03a2 FFF7FEFF 		bl	CyDelay
 270:main.c        ****         CalibrateInterrupt_Write(1);
 709              		.loc 1 270 0
 710 03a6 0120     		mov	r0, #1
 711 03a8 FFF7FEFF 		bl	CalibrateInterrupt_Write
 712 03ac 25E0     		b	.L17
 713              	.L23:
 714 03ae C046     		.align	2
 715              	.L22:
 716 03b0 00000000 		.word	ReceiveISR
 717 03b4 00000000 		.word	ReceiveFlag
 718 03b8 00000000 		.word	.LC2
 719 03bc 00000000 		.word	ledDelay
 720 03c0 00000000 		.word	dataIn
 721 03c4 00000000 		.word	numAlarms
 722 03c8 00000000 		.word	MAX_ALARMS
 723 03cc 00000000 		.word	alarms
 724 03d0 10000000 		.word	.LC9
 725              	.L16:
 271:main.c        ****         
 272:main.c        **** 
 273:main.c        ****         }
 274:main.c        ****         else if((checkAlarm(&currentTime, &calibrateTimeAlarm)) && calibrateTimeState){
 726              		.loc 1 274 0
 727 03d4 4023     		mov	r3, #64
 728 03d6 FA18     		add	r2, r7, r3
 729 03d8 2023     		mov	r3, #32
 730 03da FB18     		add	r3, r7, r3
 731 03dc 101C     		mov	r0, r2
 732 03de 191C     		mov	r1, r3
 733 03e0 FFF7FEFF 		bl	checkAlarm
 734 03e4 031E     		sub	r3, r0, #0
 735 03e6 08D0     		beq	.L17
 736              		.loc 1 274 0 is_stmt 0 discriminator 1
 737 03e8 5C23     		mov	r3, #92
 738 03ea FB18     		add	r3, r7, r3
 739 03ec 1B78     		ldrb	r3, [r3]
 740 03ee 002B     		cmp	r3, #0
 741 03f0 03D0     		beq	.L17
 275:main.c        ****             
 276:main.c        ****             calibrateTimeState = 0;
ARM GAS  C:\Users\Joseph\AppData\Local\Temp\ccvarZmH.s 			page 19


 742              		.loc 1 276 0 is_stmt 1
 743 03f2 5C23     		mov	r3, #92
 744 03f4 FB18     		add	r3, r7, r3
 745 03f6 0022     		mov	r2, #0
 746 03f8 1A70     		strb	r2, [r3]
 747              	.L17:
 277:main.c        ****         }
 278:main.c        ****         
 279:main.c        ****         if(!(checkAlarm(&currentTime, &displayTime)) && !displayState){
 748              		.loc 1 279 0
 749 03fa 4023     		mov	r3, #64
 750 03fc FA18     		add	r2, r7, r3
 751 03fe 3023     		mov	r3, #48
 752 0400 FB18     		add	r3, r7, r3
 753 0402 101C     		mov	r0, r2
 754 0404 191C     		mov	r1, r3
 755 0406 FFF7FEFF 		bl	checkAlarm
 756 040a 031E     		sub	r3, r0, #0
 757 040c 1BD1     		bne	.L18
 758              		.loc 1 279 0 is_stmt 0 discriminator 1
 759 040e 5D23     		mov	r3, #93
 760 0410 FB18     		add	r3, r7, r3
 761 0412 1B78     		ldrb	r3, [r3]
 762 0414 002B     		cmp	r3, #0
 763 0416 16D1     		bne	.L18
 280:main.c        ****         // if the time matches and the display hasnt already been updated
 281:main.c        ****         // then write the clock pin high and set displayState
 282:main.c        ****            
 283:main.c        ****        // updateDisplay(&currentTime);    
 284:main.c        **** //            ClockPin_Write(1);
 285:main.c        **** //            ClockPin_Write(0);
 286:main.c        **** //            CyDelayUs(10);
 287:main.c        ****             
 288:main.c        ****             ClockPin_Write(0);
 764              		.loc 1 288 0 is_stmt 1
 765 0418 0020     		mov	r0, #0
 766 041a FFF7FEFF 		bl	ClockPin_Write
 289:main.c        ****             CyDelayUs(200);
 767              		.loc 1 289 0
 768 041e C820     		mov	r0, #200
 769 0420 FFF7FEFF 		bl	CyDelayUs
 290:main.c        ****             ClockPin_Write(1);
 770              		.loc 1 290 0
 771 0424 0120     		mov	r0, #1
 772 0426 FFF7FEFF 		bl	ClockPin_Write
 291:main.c        ****             
 292:main.c        ****             //flash led
 293:main.c        ****             Pin_1_Write(1);
 773              		.loc 1 293 0
 774 042a 0120     		mov	r0, #1
 775 042c FFF7FEFF 		bl	Pin_1_Write
 294:main.c        ****             CyDelay(100);
 776              		.loc 1 294 0
 777 0430 6420     		mov	r0, #100
 778 0432 FFF7FEFF 		bl	CyDelay
 295:main.c        ****             Pin_1_Write(0);
 779              		.loc 1 295 0
ARM GAS  C:\Users\Joseph\AppData\Local\Temp\ccvarZmH.s 			page 20


 780 0436 0020     		mov	r0, #0
 781 0438 FFF7FEFF 		bl	Pin_1_Write
 296:main.c        ****             
 297:main.c        ****             displayState =1;
 782              		.loc 1 297 0
 783 043c 5D23     		mov	r3, #93
 784 043e FB18     		add	r3, r7, r3
 785 0440 0122     		mov	r2, #1
 786 0442 1A70     		strb	r2, [r3]
 787 0444 12E0     		b	.L19
 788              	.L18:
 298:main.c        ****         }
 299:main.c        ****         else if(checkAlarm(&currentTime, &displayTime) && displayState){
 789              		.loc 1 299 0
 790 0446 4023     		mov	r3, #64
 791 0448 FA18     		add	r2, r7, r3
 792 044a 3023     		mov	r3, #48
 793 044c FB18     		add	r3, r7, r3
 794 044e 101C     		mov	r0, r2
 795 0450 191C     		mov	r1, r3
 796 0452 FFF7FEFF 		bl	checkAlarm
 797 0456 031E     		sub	r3, r0, #0
 798 0458 08D0     		beq	.L19
 799              		.loc 1 299 0 is_stmt 0 discriminator 1
 800 045a 5D23     		mov	r3, #93
 801 045c FB18     		add	r3, r7, r3
 802 045e 1B78     		ldrb	r3, [r3]
 803 0460 002B     		cmp	r3, #0
 804 0462 03D0     		beq	.L19
 300:main.c        ****         // if the time no longer matches and displayState hasnt been reset,
 301:main.c        ****         //then reset displayState
 302:main.c        ****             displayState =0; 
 805              		.loc 1 302 0 is_stmt 1
 806 0464 5D23     		mov	r3, #93
 807 0466 FB18     		add	r3, r7, r3
 808 0468 0022     		mov	r2, #0
 809 046a 1A70     		strb	r2, [r3]
 810              	.L19:
 303:main.c        ****         }
 304:main.c        ****         
 305:main.c        **** 
 306:main.c        ****         
 307:main.c        ****        
 308:main.c        ****         
 309:main.c        **** 
 310:main.c        ****      
 311:main.c        ****         
 312:main.c        ****        
 313:main.c        **** //        if(currentTime.second == 0){
 314:main.c        **** //        
 315:main.c        **** //            Pin_4_Write(1);
 316:main.c        **** //            CyDelay(ledDelay);
 317:main.c        **** //            Pin_4_Write(0);
 318:main.c        **** //        }
 319:main.c        ****         
 320:main.c        **** 
 321:main.c        **** 
ARM GAS  C:\Users\Joseph\AppData\Local\Temp\ccvarZmH.s 			page 21


 322:main.c        ****         //printlnNum(currentTime.second,'d');
 323:main.c        ****         
 324:main.c        ****         char output[25];
 325:main.c        ****         
 326:main.c        ****         //uint8 control1 = readReg(CONTROL_REG_1);
 327:main.c        ****         //uint8 control2 = readReg(CONTROL_REG_2);
 328:main.c        ****         uint8 control3 = readReg(CONTROL_REG_3);
 811              		.loc 1 328 0
 812 046c 4823     		mov	r3, #72
 813 046e FC18     		add	r4, r7, r3
 814 0470 0220     		mov	r0, #2
 815 0472 FFF7FEFF 		bl	readReg
 816 0476 031C     		mov	r3, r0
 817 0478 2370     		strb	r3, [r4]
 329:main.c        ****         if(count%25 ==0 ){
 818              		.loc 1 329 0
 819 047a BB6D     		ldr	r3, [r7, #88]
 820 047c 181C     		mov	r0, r3
 821 047e 1921     		mov	r1, #25
 822 0480 FFF7FEFF 		bl	__aeabi_idivmod
 823 0484 0B1E     		sub	r3, r1, #0
 824 0486 04D1     		bne	.L20
 330:main.c        ****             
 331:main.c        ****             printTime(&currentTime);
 825              		.loc 1 331 0
 826 0488 4023     		mov	r3, #64
 827 048a FB18     		add	r3, r7, r3
 828 048c 181C     		mov	r0, r3
 829 048e FFF7FEFF 		bl	printTime
 830              	.L20:
 332:main.c        ****             
 333:main.c        **** //        sprintf(output, "control 3 :%X      ", control3);
 334:main.c        **** //        sprintf(output2," %d:%2d:%d \n\r",hour, minutes,seconds);
 335:main.c        **** //        UART_1_UartPutString(output);
 336:main.c        ****         
 337:main.c        ****         }
 338:main.c        **** 
 339:main.c        ****         count++;
 831              		.loc 1 339 0
 832 0492 BB6D     		ldr	r3, [r7, #88]
 833 0494 0133     		add	r3, r3, #1
 834 0496 BB65     		str	r3, [r7, #88]
 835              	.LBE3:
 340:main.c        ****         //softReset();
 341:main.c        ****         //year:%d,month%d,day:%d,wkday:%d currentTime.year,currentTime.month,currentTime.day,curren
 342:main.c        ****         
 343:main.c        ****     }    /* Place your application code here. */
 836              		.loc 1 343 0
 837 0498 67E6     		b	.L21
 838              		.cfi_endproc
 839              	.LFE35:
 840              		.size	main, .-main
 841 049a C046     		.text
 842              	.Letext0:
 843              		.file 2 "c:\\program files (x86)\\cypress\\psoc creator\\4.0\\psoc creator\\import\\gnu\\arm\\4.9.
 844              		.file 3 "c:\\program files (x86)\\cypress\\psoc creator\\4.0\\psoc creator\\import\\gnu\\arm\\4.9.
 845              		.file 4 "Generated_Source\\PSoC4/cytypes.h"
ARM GAS  C:\Users\Joseph\AppData\Local\Temp\ccvarZmH.s 			page 22


 846              		.file 5 "./RTC.h"
 847              		.section	.debug_info,"",%progbits
 848              	.Ldebug_info0:
 849 0000 C0030000 		.4byte	0x3c0
 850 0004 0400     		.2byte	0x4
 851 0006 00000000 		.4byte	.Ldebug_abbrev0
 852 000a 04       		.byte	0x4
 853 000b 01       		.uleb128 0x1
 854 000c 58010000 		.4byte	.LASF53
 855 0010 01       		.byte	0x1
 856 0011 AC020000 		.4byte	.LASF54
 857 0015 E6010000 		.4byte	.LASF55
 858 0019 00000000 		.4byte	.Ldebug_ranges0+0
 859 001d 00000000 		.4byte	0
 860 0021 00000000 		.4byte	.Ldebug_line0
 861 0025 02       		.uleb128 0x2
 862 0026 29000000 		.4byte	.LASF0
 863 002a 02       		.byte	0x2
 864 002b 1B       		.byte	0x1b
 865 002c 30000000 		.4byte	0x30
 866 0030 03       		.uleb128 0x3
 867 0031 01       		.byte	0x1
 868 0032 06       		.byte	0x6
 869 0033 E0020000 		.4byte	.LASF2
 870 0037 02       		.uleb128 0x2
 871 0038 32000000 		.4byte	.LASF1
 872 003c 02       		.byte	0x2
 873 003d 1D       		.byte	0x1d
 874 003e 42000000 		.4byte	0x42
 875 0042 03       		.uleb128 0x3
 876 0043 01       		.byte	0x1
 877 0044 08       		.byte	0x8
 878 0045 A7000000 		.4byte	.LASF3
 879 0049 03       		.uleb128 0x3
 880 004a 02       		.byte	0x2
 881 004b 05       		.byte	0x5
 882 004c B8020000 		.4byte	.LASF4
 883 0050 02       		.uleb128 0x2
 884 0051 5B000000 		.4byte	.LASF5
 885 0055 02       		.byte	0x2
 886 0056 2B       		.byte	0x2b
 887 0057 5B000000 		.4byte	0x5b
 888 005b 03       		.uleb128 0x3
 889 005c 02       		.byte	0x2
 890 005d 07       		.byte	0x7
 891 005e CB000000 		.4byte	.LASF6
 892 0062 03       		.uleb128 0x3
 893 0063 04       		.byte	0x4
 894 0064 05       		.byte	0x5
 895 0065 D2020000 		.4byte	.LASF7
 896 0069 03       		.uleb128 0x3
 897 006a 04       		.byte	0x4
 898 006b 07       		.byte	0x7
 899 006c 24010000 		.4byte	.LASF8
 900 0070 03       		.uleb128 0x3
 901 0071 08       		.byte	0x8
 902 0072 05       		.byte	0x5
ARM GAS  C:\Users\Joseph\AppData\Local\Temp\ccvarZmH.s 			page 23


 903 0073 00000000 		.4byte	.LASF9
 904 0077 03       		.uleb128 0x3
 905 0078 08       		.byte	0x8
 906 0079 07       		.byte	0x7
 907 007a 88000000 		.4byte	.LASF10
 908 007e 04       		.uleb128 0x4
 909 007f 04       		.byte	0x4
 910 0080 05       		.byte	0x5
 911 0081 696E7400 		.ascii	"int\000"
 912 0085 03       		.uleb128 0x3
 913 0086 04       		.byte	0x4
 914 0087 07       		.byte	0x7
 915 0088 48020000 		.4byte	.LASF11
 916 008c 02       		.uleb128 0x2
 917 008d 72000000 		.4byte	.LASF12
 918 0091 03       		.byte	0x3
 919 0092 14       		.byte	0x14
 920 0093 25000000 		.4byte	0x25
 921 0097 02       		.uleb128 0x2
 922 0098 61020000 		.4byte	.LASF13
 923 009c 03       		.byte	0x3
 924 009d 15       		.byte	0x15
 925 009e 37000000 		.4byte	0x37
 926 00a2 02       		.uleb128 0x2
 927 00a3 C9020000 		.4byte	.LASF14
 928 00a7 03       		.byte	0x3
 929 00a8 21       		.byte	0x21
 930 00a9 50000000 		.4byte	0x50
 931 00ad 05       		.uleb128 0x5
 932 00ae 75020000 		.4byte	.LASF15
 933 00b2 04       		.byte	0x4
 934 00b3 B901     		.2byte	0x1b9
 935 00b5 42000000 		.4byte	0x42
 936 00b9 03       		.uleb128 0x3
 937 00ba 04       		.byte	0x4
 938 00bb 04       		.byte	0x4
 939 00bc 82000000 		.4byte	.LASF16
 940 00c0 03       		.uleb128 0x3
 941 00c1 08       		.byte	0x8
 942 00c2 04       		.byte	0x4
 943 00c3 EC020000 		.4byte	.LASF17
 944 00c7 03       		.uleb128 0x3
 945 00c8 01       		.byte	0x1
 946 00c9 08       		.byte	0x8
 947 00ca B3020000 		.4byte	.LASF18
 948 00ce 03       		.uleb128 0x3
 949 00cf 04       		.byte	0x4
 950 00d0 07       		.byte	0x7
 951 00d1 89020000 		.4byte	.LASF19
 952 00d5 06       		.uleb128 0x6
 953 00d6 C7000000 		.4byte	0xc7
 954 00da E5000000 		.4byte	0xe5
 955 00de 07       		.uleb128 0x7
 956 00df CE000000 		.4byte	0xce
 957 00e3 18       		.byte	0x18
 958 00e4 00       		.byte	0
 959 00e5 08       		.uleb128 0x8
ARM GAS  C:\Users\Joseph\AppData\Local\Temp\ccvarZmH.s 			page 24


 960 00e6 7B020000 		.4byte	.LASF56
 961 00ea 07       		.byte	0x7
 962 00eb 05       		.byte	0x5
 963 00ec 40       		.byte	0x40
 964 00ed 46010000 		.4byte	0x146
 965 00f1 09       		.uleb128 0x9
 966 00f2 41020000 		.4byte	.LASF20
 967 00f6 05       		.byte	0x5
 968 00f7 42       		.byte	0x42
 969 00f8 AD000000 		.4byte	0xad
 970 00fc 00       		.byte	0
 971 00fd 09       		.uleb128 0x9
 972 00fe 0B030000 		.4byte	.LASF21
 973 0102 05       		.byte	0x5
 974 0103 43       		.byte	0x43
 975 0104 AD000000 		.4byte	0xad
 976 0108 01       		.byte	0x1
 977 0109 09       		.uleb128 0x9
 978 010a E4000000 		.4byte	.LASF22
 979 010e 05       		.byte	0x5
 980 010f 44       		.byte	0x44
 981 0110 AD000000 		.4byte	0xad
 982 0114 02       		.byte	0x2
 983 0115 0A       		.uleb128 0xa
 984 0116 64617900 		.ascii	"day\000"
 985 011a 05       		.byte	0x5
 986 011b 45       		.byte	0x45
 987 011c AD000000 		.4byte	0xad
 988 0120 03       		.byte	0x3
 989 0121 09       		.uleb128 0x9
 990 0122 3C000000 		.4byte	.LASF23
 991 0126 05       		.byte	0x5
 992 0127 46       		.byte	0x46
 993 0128 AD000000 		.4byte	0xad
 994 012c 04       		.byte	0x4
 995 012d 09       		.uleb128 0x9
 996 012e 66000000 		.4byte	.LASF24
 997 0132 05       		.byte	0x5
 998 0133 47       		.byte	0x47
 999 0134 AD000000 		.4byte	0xad
 1000 0138 05       		.byte	0x5
 1001 0139 09       		.uleb128 0x9
 1002 013a 14010000 		.4byte	.LASF25
 1003 013e 05       		.byte	0x5
 1004 013f 48       		.byte	0x48
 1005 0140 AD000000 		.4byte	0xad
 1006 0144 06       		.byte	0x6
 1007 0145 00       		.byte	0
 1008 0146 0B       		.uleb128 0xb
 1009 0147 FA000000 		.4byte	.LASF27
 1010 014b 01       		.byte	0x1
 1011 014c 1A       		.byte	0x1a
 1012 014d 00000000 		.4byte	.LFB34
 1013 0151 9A000000 		.4byte	.LFE34-.LFB34
 1014 0155 01       		.uleb128 0x1
 1015 0156 9C       		.byte	0x9c
 1016 0157 84010000 		.4byte	0x184
ARM GAS  C:\Users\Joseph\AppData\Local\Temp\ccvarZmH.s 			page 25


 1017 015b 0C       		.uleb128 0xc
 1018 015c 9F000000 		.4byte	.LASF57
 1019 0160 01       		.byte	0x1
 1020 0161 1A       		.byte	0x1a
 1021 0162 84010000 		.4byte	0x184
 1022 0166 02       		.uleb128 0x2
 1023 0167 91       		.byte	0x91
 1024 0168 6C       		.sleb128 -20
 1025 0169 0D       		.uleb128 0xd
 1026 016a 6900     		.ascii	"i\000"
 1027 016c 01       		.byte	0x1
 1028 016d 21       		.byte	0x21
 1029 016e A2000000 		.4byte	0xa2
 1030 0172 02       		.uleb128 0x2
 1031 0173 91       		.byte	0x91
 1032 0174 76       		.sleb128 -10
 1033 0175 0E       		.uleb128 0xe
 1034 0176 06030000 		.4byte	.LASF26
 1035 017a 01       		.byte	0x1
 1036 017b 22       		.byte	0x22
 1037 017c A2000000 		.4byte	0xa2
 1038 0180 02       		.uleb128 0x2
 1039 0181 91       		.byte	0x91
 1040 0182 74       		.sleb128 -12
 1041 0183 00       		.byte	0
 1042 0184 0F       		.uleb128 0xf
 1043 0185 04       		.byte	0x4
 1044 0186 E5000000 		.4byte	0xe5
 1045 018a 10       		.uleb128 0x10
 1046 018b 53010000 		.4byte	.LASF28
 1047 018f 01       		.byte	0x1
 1048 0190 35       		.byte	0x35
 1049 0191 7E000000 		.4byte	0x7e
 1050 0195 00000000 		.4byte	.LFB35
 1051 0199 9A040000 		.4byte	.LFE35-.LFB35
 1052 019d 01       		.uleb128 0x1
 1053 019e 9C       		.byte	0x9c
 1054 019f 1D030000 		.4byte	0x31d
 1055 01a3 0E       		.uleb128 0xe
 1056 01a4 80020000 		.4byte	.LASF29
 1057 01a8 01       		.byte	0x1
 1058 01a9 46       		.byte	0x46
 1059 01aa AD000000 		.4byte	0xad
 1060 01ae 02       		.uleb128 0x2
 1061 01af 91       		.byte	0x91
 1062 01b0 6F       		.sleb128 -17
 1063 01b1 0E       		.uleb128 0xe
 1064 01b2 69020000 		.4byte	.LASF30
 1065 01b6 01       		.byte	0x1
 1066 01b7 6B       		.byte	0x6b
 1067 01b8 E5000000 		.4byte	0xe5
 1068 01bc 02       		.uleb128 0x2
 1069 01bd 91       		.byte	0x91
 1070 01be 50       		.sleb128 -48
 1071 01bf 11       		.uleb128 0x11
 1072 01c0 E4000000 		.4byte	.LASF22
 1073 01c4 01       		.byte	0x1
ARM GAS  C:\Users\Joseph\AppData\Local\Temp\ccvarZmH.s 			page 26


 1074 01c5 6D       		.byte	0x6d
 1075 01c6 AD000000 		.4byte	0xad
 1076 01ca 11       		.uleb128 0x11
 1077 01cb A4020000 		.4byte	.LASF31
 1078 01cf 01       		.byte	0x1
 1079 01d0 6E       		.byte	0x6e
 1080 01d1 AD000000 		.4byte	0xad
 1081 01d5 11       		.uleb128 0x11
 1082 01d6 0E000000 		.4byte	.LASF32
 1083 01da 01       		.byte	0x1
 1084 01db 6F       		.byte	0x6f
 1085 01dc AD000000 		.4byte	0xad
 1086 01e0 0E       		.uleb128 0xe
 1087 01e1 DE000000 		.4byte	.LASF33
 1088 01e5 01       		.byte	0x1
 1089 01e6 7A       		.byte	0x7a
 1090 01e7 E5000000 		.4byte	0xe5
 1091 01eb 02       		.uleb128 0x2
 1092 01ec 91       		.byte	0x91
 1093 01ed 48       		.sleb128 -56
 1094 01ee 0E       		.uleb128 0xe
 1095 01ef 19010000 		.4byte	.LASF34
 1096 01f3 01       		.byte	0x1
 1097 01f4 7B       		.byte	0x7b
 1098 01f5 97000000 		.4byte	0x97
 1099 01f9 02       		.uleb128 0x2
 1100 01fa 91       		.byte	0x91
 1101 01fb 6E       		.sleb128 -18
 1102 01fc 0E       		.uleb128 0xe
 1103 01fd 08010000 		.4byte	.LASF35
 1104 0201 01       		.byte	0x1
 1105 0202 86       		.byte	0x86
 1106 0203 E5000000 		.4byte	0xe5
 1107 0207 02       		.uleb128 0x2
 1108 0208 91       		.byte	0x91
 1109 0209 40       		.sleb128 -64
 1110 020a 0E       		.uleb128 0xe
 1111 020b 46010000 		.4byte	.LASF36
 1112 020f 01       		.byte	0x1
 1113 0210 89       		.byte	0x89
 1114 0211 97000000 		.4byte	0x97
 1115 0215 02       		.uleb128 0x2
 1116 0216 91       		.byte	0x91
 1117 0217 6D       		.sleb128 -19
 1118 0218 0E       		.uleb128 0xe
 1119 0219 E9000000 		.4byte	.LASF37
 1120 021d 01       		.byte	0x1
 1121 021e 8C       		.byte	0x8c
 1122 021f E5000000 		.4byte	0xe5
 1123 0223 03       		.uleb128 0x3
 1124 0224 91       		.byte	0x91
 1125 0225 B87F     		.sleb128 -72
 1126 0227 0E       		.uleb128 0xe
 1127 0228 36010000 		.4byte	.LASF38
 1128 022c 01       		.byte	0x1
 1129 022d 8E       		.byte	0x8e
 1130 022e 97000000 		.4byte	0x97
ARM GAS  C:\Users\Joseph\AppData\Local\Temp\ccvarZmH.s 			page 27


 1131 0232 02       		.uleb128 0x2
 1132 0233 91       		.byte	0x91
 1133 0234 5E       		.sleb128 -34
 1134 0235 0E       		.uleb128 0xe
 1135 0236 F3020000 		.4byte	.LASF39
 1136 023a 01       		.byte	0x1
 1137 023b 90       		.byte	0x90
 1138 023c E5000000 		.4byte	0xe5
 1139 0240 03       		.uleb128 0x3
 1140 0241 91       		.byte	0x91
 1141 0242 B07F     		.sleb128 -80
 1142 0244 0E       		.uleb128 0xe
 1143 0245 16000000 		.4byte	.LASF40
 1144 0249 01       		.byte	0x1
 1145 024a 91       		.byte	0x91
 1146 024b 97000000 		.4byte	0x97
 1147 024f 02       		.uleb128 0x2
 1148 0250 91       		.byte	0x91
 1149 0251 6C       		.sleb128 -20
 1150 0252 0E       		.uleb128 0xe
 1151 0253 4B000000 		.4byte	.LASF41
 1152 0257 01       		.byte	0x1
 1153 0258 9F       		.byte	0x9f
 1154 0259 7E000000 		.4byte	0x7e
 1155 025d 02       		.uleb128 0x2
 1156 025e 91       		.byte	0x91
 1157 025f 68       		.sleb128 -24
 1158 0260 12       		.uleb128 0x12
 1159 0261 3E000000 		.4byte	.LBB2
 1160 0265 5A000000 		.4byte	.LBE2-.LBB2
 1161 0269 7C020000 		.4byte	0x27c
 1162 026d 0E       		.uleb128 0xe
 1163 026e BD000000 		.4byte	.LASF42
 1164 0272 01       		.byte	0x1
 1165 0273 52       		.byte	0x52
 1166 0274 97000000 		.4byte	0x97
 1167 0278 02       		.uleb128 0x2
 1168 0279 91       		.byte	0x91
 1169 027a 5F       		.sleb128 -33
 1170 027b 00       		.byte	0
 1171 027c 13       		.uleb128 0x13
 1172 027d 6A010000 		.4byte	.LBB3
 1173 0281 2E030000 		.4byte	.LBE3-.LBB3
 1174 0285 0E       		.uleb128 0xe
 1175 0286 6C000000 		.4byte	.LASF43
 1176 028a 01       		.byte	0x1
 1177 028b F2       		.byte	0xf2
 1178 028c 97000000 		.4byte	0x97
 1179 0290 02       		.uleb128 0x2
 1180 0291 91       		.byte	0x91
 1181 0292 67       		.sleb128 -25
 1182 0293 0D       		.uleb128 0xd
 1183 0294 6900     		.ascii	"i\000"
 1184 0296 01       		.byte	0x1
 1185 0297 F3       		.byte	0xf3
 1186 0298 7E000000 		.4byte	0x7e
 1187 029c 02       		.uleb128 0x2
ARM GAS  C:\Users\Joseph\AppData\Local\Temp\ccvarZmH.s 			page 28


 1188 029d 91       		.byte	0x91
 1189 029e 60       		.sleb128 -32
 1190 029f 14       		.uleb128 0x14
 1191 02a0 C2020000 		.4byte	.LASF44
 1192 02a4 01       		.byte	0x1
 1193 02a5 4401     		.2byte	0x144
 1194 02a7 D5000000 		.4byte	0xd5
 1195 02ab 03       		.uleb128 0x3
 1196 02ac 91       		.byte	0x91
 1197 02ad 947F     		.sleb128 -108
 1198 02af 14       		.uleb128 0x14
 1199 02b0 80020000 		.4byte	.LASF29
 1200 02b4 01       		.byte	0x1
 1201 02b5 4801     		.2byte	0x148
 1202 02b7 AD000000 		.4byte	0xad
 1203 02bb 02       		.uleb128 0x2
 1204 02bc 91       		.byte	0x91
 1205 02bd 58       		.sleb128 -40
 1206 02be 12       		.uleb128 0x12
 1207 02bf A4010000 		.4byte	.LBB4
 1208 02c3 B4000000 		.4byte	.LBE4-.LBB4
 1209 02c7 F5020000 		.4byte	0x2f5
 1210 02cb 0D       		.uleb128 0xd
 1211 02cc 6D696E00 		.ascii	"min\000"
 1212 02d0 01       		.byte	0x1
 1213 02d1 CD       		.byte	0xcd
 1214 02d2 AD000000 		.4byte	0xad
 1215 02d6 02       		.uleb128 0x2
 1216 02d7 91       		.byte	0x91
 1217 02d8 5D       		.sleb128 -35
 1218 02d9 0D       		.uleb128 0xd
 1219 02da 776B00   		.ascii	"wk\000"
 1220 02dd 01       		.byte	0x1
 1221 02de CE       		.byte	0xce
 1222 02df AD000000 		.4byte	0xad
 1223 02e3 02       		.uleb128 0x2
 1224 02e4 91       		.byte	0x91
 1225 02e5 5C       		.sleb128 -36
 1226 02e6 0E       		.uleb128 0xe
 1227 02e7 E4000000 		.4byte	.LASF22
 1228 02eb 01       		.byte	0x1
 1229 02ec CF       		.byte	0xcf
 1230 02ed AD000000 		.4byte	0xad
 1231 02f1 02       		.uleb128 0x2
 1232 02f2 91       		.byte	0x91
 1233 02f3 5B       		.sleb128 -37
 1234 02f4 00       		.byte	0
 1235 02f5 13       		.uleb128 0x13
 1236 02f6 68020000 		.4byte	.LBB5
 1237 02fa 5A000000 		.4byte	.LBE5-.LBB5
 1238 02fe 0E       		.uleb128 0xe
 1239 02ff 06030000 		.4byte	.LASF26
 1240 0303 01       		.byte	0x1
 1241 0304 E8       		.byte	0xe8
 1242 0305 97000000 		.4byte	0x97
 1243 0309 02       		.uleb128 0x2
 1244 030a 91       		.byte	0x91
ARM GAS  C:\Users\Joseph\AppData\Local\Temp\ccvarZmH.s 			page 29


 1245 030b 5A       		.sleb128 -38
 1246 030c 0E       		.uleb128 0xe
 1247 030d DB020000 		.4byte	.LASF45
 1248 0311 01       		.byte	0x1
 1249 0312 EA       		.byte	0xea
 1250 0313 97000000 		.4byte	0x97
 1251 0317 02       		.uleb128 0x2
 1252 0318 91       		.byte	0x91
 1253 0319 59       		.sleb128 -39
 1254 031a 00       		.byte	0
 1255 031b 00       		.byte	0
 1256 031c 00       		.byte	0
 1257 031d 06       		.uleb128 0x6
 1258 031e 97000000 		.4byte	0x97
 1259 0322 2D030000 		.4byte	0x32d
 1260 0326 07       		.uleb128 0x7
 1261 0327 CE000000 		.4byte	0xce
 1262 032b 02       		.byte	0x2
 1263 032c 00       		.byte	0
 1264 032d 15       		.uleb128 0x15
 1265 032e 44000000 		.4byte	.LASF46
 1266 0332 01       		.byte	0x1
 1267 0333 12       		.byte	0x12
 1268 0334 3E030000 		.4byte	0x33e
 1269 0338 05       		.uleb128 0x5
 1270 0339 03       		.byte	0x3
 1271 033a 00000000 		.4byte	dataIn
 1272 033e 16       		.uleb128 0x16
 1273 033f 1D030000 		.4byte	0x31d
 1274 0343 15       		.uleb128 0x15
 1275 0344 55020000 		.4byte	.LASF47
 1276 0348 01       		.byte	0x1
 1277 0349 13       		.byte	0x13
 1278 034a 54030000 		.4byte	0x354
 1279 034e 05       		.uleb128 0x5
 1280 034f 03       		.byte	0x3
 1281 0350 00000000 		.4byte	ReceiveFlag
 1282 0354 16       		.uleb128 0x16
 1283 0355 8C000000 		.4byte	0x8c
 1284 0359 15       		.uleb128 0x15
 1285 035a B5000000 		.4byte	.LASF48
 1286 035e 01       		.byte	0x1
 1287 035f 14       		.byte	0x14
 1288 0360 6A030000 		.4byte	0x36a
 1289 0364 05       		.uleb128 0x5
 1290 0365 03       		.byte	0x3
 1291 0366 00000000 		.4byte	byteNum
 1292 036a 16       		.uleb128 0x16
 1293 036b 97000000 		.4byte	0x97
 1294 036f 15       		.uleb128 0x15
 1295 0370 79000000 		.4byte	.LASF49
 1296 0374 01       		.byte	0x1
 1297 0375 15       		.byte	0x15
 1298 0376 97000000 		.4byte	0x97
 1299 037a 05       		.uleb128 0x5
 1300 037b 03       		.byte	0x3
 1301 037c 00000000 		.4byte	ledDelay
ARM GAS  C:\Users\Joseph\AppData\Local\Temp\ccvarZmH.s 			page 30


 1302 0380 06       		.uleb128 0x6
 1303 0381 84010000 		.4byte	0x184
 1304 0385 90030000 		.4byte	0x390
 1305 0389 07       		.uleb128 0x7
 1306 038a CE000000 		.4byte	0xce
 1307 038e 06       		.byte	0x6
 1308 038f 00       		.byte	0
 1309 0390 15       		.uleb128 0x15
 1310 0391 9D020000 		.4byte	.LASF50
 1311 0395 01       		.byte	0x1
 1312 0396 16       		.byte	0x16
 1313 0397 80030000 		.4byte	0x380
 1314 039b 05       		.uleb128 0x5
 1315 039c 03       		.byte	0x3
 1316 039d 00000000 		.4byte	alarms
 1317 03a1 15       		.uleb128 0x15
 1318 03a2 51000000 		.4byte	.LASF51
 1319 03a6 01       		.byte	0x1
 1320 03a7 17       		.byte	0x17
 1321 03a8 97000000 		.4byte	0x97
 1322 03ac 05       		.uleb128 0x5
 1323 03ad 03       		.byte	0x3
 1324 03ae 00000000 		.4byte	numAlarms
 1325 03b2 15       		.uleb128 0x15
 1326 03b3 92020000 		.4byte	.LASF52
 1327 03b7 01       		.byte	0x1
 1328 03b8 18       		.byte	0x18
 1329 03b9 97000000 		.4byte	0x97
 1330 03bd 05       		.uleb128 0x5
 1331 03be 03       		.byte	0x3
 1332 03bf 00000000 		.4byte	MAX_ALARMS
 1333 03c3 00       		.byte	0
 1334              		.section	.debug_abbrev,"",%progbits
 1335              	.Ldebug_abbrev0:
 1336 0000 01       		.uleb128 0x1
 1337 0001 11       		.uleb128 0x11
 1338 0002 01       		.byte	0x1
 1339 0003 25       		.uleb128 0x25
 1340 0004 0E       		.uleb128 0xe
 1341 0005 13       		.uleb128 0x13
 1342 0006 0B       		.uleb128 0xb
 1343 0007 03       		.uleb128 0x3
 1344 0008 0E       		.uleb128 0xe
 1345 0009 1B       		.uleb128 0x1b
 1346 000a 0E       		.uleb128 0xe
 1347 000b 55       		.uleb128 0x55
 1348 000c 17       		.uleb128 0x17
 1349 000d 11       		.uleb128 0x11
 1350 000e 01       		.uleb128 0x1
 1351 000f 10       		.uleb128 0x10
 1352 0010 17       		.uleb128 0x17
 1353 0011 00       		.byte	0
 1354 0012 00       		.byte	0
 1355 0013 02       		.uleb128 0x2
 1356 0014 16       		.uleb128 0x16
 1357 0015 00       		.byte	0
 1358 0016 03       		.uleb128 0x3
ARM GAS  C:\Users\Joseph\AppData\Local\Temp\ccvarZmH.s 			page 31


 1359 0017 0E       		.uleb128 0xe
 1360 0018 3A       		.uleb128 0x3a
 1361 0019 0B       		.uleb128 0xb
 1362 001a 3B       		.uleb128 0x3b
 1363 001b 0B       		.uleb128 0xb
 1364 001c 49       		.uleb128 0x49
 1365 001d 13       		.uleb128 0x13
 1366 001e 00       		.byte	0
 1367 001f 00       		.byte	0
 1368 0020 03       		.uleb128 0x3
 1369 0021 24       		.uleb128 0x24
 1370 0022 00       		.byte	0
 1371 0023 0B       		.uleb128 0xb
 1372 0024 0B       		.uleb128 0xb
 1373 0025 3E       		.uleb128 0x3e
 1374 0026 0B       		.uleb128 0xb
 1375 0027 03       		.uleb128 0x3
 1376 0028 0E       		.uleb128 0xe
 1377 0029 00       		.byte	0
 1378 002a 00       		.byte	0
 1379 002b 04       		.uleb128 0x4
 1380 002c 24       		.uleb128 0x24
 1381 002d 00       		.byte	0
 1382 002e 0B       		.uleb128 0xb
 1383 002f 0B       		.uleb128 0xb
 1384 0030 3E       		.uleb128 0x3e
 1385 0031 0B       		.uleb128 0xb
 1386 0032 03       		.uleb128 0x3
 1387 0033 08       		.uleb128 0x8
 1388 0034 00       		.byte	0
 1389 0035 00       		.byte	0
 1390 0036 05       		.uleb128 0x5
 1391 0037 16       		.uleb128 0x16
 1392 0038 00       		.byte	0
 1393 0039 03       		.uleb128 0x3
 1394 003a 0E       		.uleb128 0xe
 1395 003b 3A       		.uleb128 0x3a
 1396 003c 0B       		.uleb128 0xb
 1397 003d 3B       		.uleb128 0x3b
 1398 003e 05       		.uleb128 0x5
 1399 003f 49       		.uleb128 0x49
 1400 0040 13       		.uleb128 0x13
 1401 0041 00       		.byte	0
 1402 0042 00       		.byte	0
 1403 0043 06       		.uleb128 0x6
 1404 0044 01       		.uleb128 0x1
 1405 0045 01       		.byte	0x1
 1406 0046 49       		.uleb128 0x49
 1407 0047 13       		.uleb128 0x13
 1408 0048 01       		.uleb128 0x1
 1409 0049 13       		.uleb128 0x13
 1410 004a 00       		.byte	0
 1411 004b 00       		.byte	0
 1412 004c 07       		.uleb128 0x7
 1413 004d 21       		.uleb128 0x21
 1414 004e 00       		.byte	0
 1415 004f 49       		.uleb128 0x49
ARM GAS  C:\Users\Joseph\AppData\Local\Temp\ccvarZmH.s 			page 32


 1416 0050 13       		.uleb128 0x13
 1417 0051 2F       		.uleb128 0x2f
 1418 0052 0B       		.uleb128 0xb
 1419 0053 00       		.byte	0
 1420 0054 00       		.byte	0
 1421 0055 08       		.uleb128 0x8
 1422 0056 13       		.uleb128 0x13
 1423 0057 01       		.byte	0x1
 1424 0058 03       		.uleb128 0x3
 1425 0059 0E       		.uleb128 0xe
 1426 005a 0B       		.uleb128 0xb
 1427 005b 0B       		.uleb128 0xb
 1428 005c 3A       		.uleb128 0x3a
 1429 005d 0B       		.uleb128 0xb
 1430 005e 3B       		.uleb128 0x3b
 1431 005f 0B       		.uleb128 0xb
 1432 0060 01       		.uleb128 0x1
 1433 0061 13       		.uleb128 0x13
 1434 0062 00       		.byte	0
 1435 0063 00       		.byte	0
 1436 0064 09       		.uleb128 0x9
 1437 0065 0D       		.uleb128 0xd
 1438 0066 00       		.byte	0
 1439 0067 03       		.uleb128 0x3
 1440 0068 0E       		.uleb128 0xe
 1441 0069 3A       		.uleb128 0x3a
 1442 006a 0B       		.uleb128 0xb
 1443 006b 3B       		.uleb128 0x3b
 1444 006c 0B       		.uleb128 0xb
 1445 006d 49       		.uleb128 0x49
 1446 006e 13       		.uleb128 0x13
 1447 006f 38       		.uleb128 0x38
 1448 0070 0B       		.uleb128 0xb
 1449 0071 00       		.byte	0
 1450 0072 00       		.byte	0
 1451 0073 0A       		.uleb128 0xa
 1452 0074 0D       		.uleb128 0xd
 1453 0075 00       		.byte	0
 1454 0076 03       		.uleb128 0x3
 1455 0077 08       		.uleb128 0x8
 1456 0078 3A       		.uleb128 0x3a
 1457 0079 0B       		.uleb128 0xb
 1458 007a 3B       		.uleb128 0x3b
 1459 007b 0B       		.uleb128 0xb
 1460 007c 49       		.uleb128 0x49
 1461 007d 13       		.uleb128 0x13
 1462 007e 38       		.uleb128 0x38
 1463 007f 0B       		.uleb128 0xb
 1464 0080 00       		.byte	0
 1465 0081 00       		.byte	0
 1466 0082 0B       		.uleb128 0xb
 1467 0083 2E       		.uleb128 0x2e
 1468 0084 01       		.byte	0x1
 1469 0085 3F       		.uleb128 0x3f
 1470 0086 19       		.uleb128 0x19
 1471 0087 03       		.uleb128 0x3
 1472 0088 0E       		.uleb128 0xe
ARM GAS  C:\Users\Joseph\AppData\Local\Temp\ccvarZmH.s 			page 33


 1473 0089 3A       		.uleb128 0x3a
 1474 008a 0B       		.uleb128 0xb
 1475 008b 3B       		.uleb128 0x3b
 1476 008c 0B       		.uleb128 0xb
 1477 008d 27       		.uleb128 0x27
 1478 008e 19       		.uleb128 0x19
 1479 008f 11       		.uleb128 0x11
 1480 0090 01       		.uleb128 0x1
 1481 0091 12       		.uleb128 0x12
 1482 0092 06       		.uleb128 0x6
 1483 0093 40       		.uleb128 0x40
 1484 0094 18       		.uleb128 0x18
 1485 0095 9642     		.uleb128 0x2116
 1486 0097 19       		.uleb128 0x19
 1487 0098 01       		.uleb128 0x1
 1488 0099 13       		.uleb128 0x13
 1489 009a 00       		.byte	0
 1490 009b 00       		.byte	0
 1491 009c 0C       		.uleb128 0xc
 1492 009d 05       		.uleb128 0x5
 1493 009e 00       		.byte	0
 1494 009f 03       		.uleb128 0x3
 1495 00a0 0E       		.uleb128 0xe
 1496 00a1 3A       		.uleb128 0x3a
 1497 00a2 0B       		.uleb128 0xb
 1498 00a3 3B       		.uleb128 0x3b
 1499 00a4 0B       		.uleb128 0xb
 1500 00a5 49       		.uleb128 0x49
 1501 00a6 13       		.uleb128 0x13
 1502 00a7 02       		.uleb128 0x2
 1503 00a8 18       		.uleb128 0x18
 1504 00a9 00       		.byte	0
 1505 00aa 00       		.byte	0
 1506 00ab 0D       		.uleb128 0xd
 1507 00ac 34       		.uleb128 0x34
 1508 00ad 00       		.byte	0
 1509 00ae 03       		.uleb128 0x3
 1510 00af 08       		.uleb128 0x8
 1511 00b0 3A       		.uleb128 0x3a
 1512 00b1 0B       		.uleb128 0xb
 1513 00b2 3B       		.uleb128 0x3b
 1514 00b3 0B       		.uleb128 0xb
 1515 00b4 49       		.uleb128 0x49
 1516 00b5 13       		.uleb128 0x13
 1517 00b6 02       		.uleb128 0x2
 1518 00b7 18       		.uleb128 0x18
 1519 00b8 00       		.byte	0
 1520 00b9 00       		.byte	0
 1521 00ba 0E       		.uleb128 0xe
 1522 00bb 34       		.uleb128 0x34
 1523 00bc 00       		.byte	0
 1524 00bd 03       		.uleb128 0x3
 1525 00be 0E       		.uleb128 0xe
 1526 00bf 3A       		.uleb128 0x3a
 1527 00c0 0B       		.uleb128 0xb
 1528 00c1 3B       		.uleb128 0x3b
 1529 00c2 0B       		.uleb128 0xb
ARM GAS  C:\Users\Joseph\AppData\Local\Temp\ccvarZmH.s 			page 34


 1530 00c3 49       		.uleb128 0x49
 1531 00c4 13       		.uleb128 0x13
 1532 00c5 02       		.uleb128 0x2
 1533 00c6 18       		.uleb128 0x18
 1534 00c7 00       		.byte	0
 1535 00c8 00       		.byte	0
 1536 00c9 0F       		.uleb128 0xf
 1537 00ca 0F       		.uleb128 0xf
 1538 00cb 00       		.byte	0
 1539 00cc 0B       		.uleb128 0xb
 1540 00cd 0B       		.uleb128 0xb
 1541 00ce 49       		.uleb128 0x49
 1542 00cf 13       		.uleb128 0x13
 1543 00d0 00       		.byte	0
 1544 00d1 00       		.byte	0
 1545 00d2 10       		.uleb128 0x10
 1546 00d3 2E       		.uleb128 0x2e
 1547 00d4 01       		.byte	0x1
 1548 00d5 3F       		.uleb128 0x3f
 1549 00d6 19       		.uleb128 0x19
 1550 00d7 03       		.uleb128 0x3
 1551 00d8 0E       		.uleb128 0xe
 1552 00d9 3A       		.uleb128 0x3a
 1553 00da 0B       		.uleb128 0xb
 1554 00db 3B       		.uleb128 0x3b
 1555 00dc 0B       		.uleb128 0xb
 1556 00dd 49       		.uleb128 0x49
 1557 00de 13       		.uleb128 0x13
 1558 00df 11       		.uleb128 0x11
 1559 00e0 01       		.uleb128 0x1
 1560 00e1 12       		.uleb128 0x12
 1561 00e2 06       		.uleb128 0x6
 1562 00e3 40       		.uleb128 0x40
 1563 00e4 18       		.uleb128 0x18
 1564 00e5 9642     		.uleb128 0x2116
 1565 00e7 19       		.uleb128 0x19
 1566 00e8 01       		.uleb128 0x1
 1567 00e9 13       		.uleb128 0x13
 1568 00ea 00       		.byte	0
 1569 00eb 00       		.byte	0
 1570 00ec 11       		.uleb128 0x11
 1571 00ed 34       		.uleb128 0x34
 1572 00ee 00       		.byte	0
 1573 00ef 03       		.uleb128 0x3
 1574 00f0 0E       		.uleb128 0xe
 1575 00f1 3A       		.uleb128 0x3a
 1576 00f2 0B       		.uleb128 0xb
 1577 00f3 3B       		.uleb128 0x3b
 1578 00f4 0B       		.uleb128 0xb
 1579 00f5 49       		.uleb128 0x49
 1580 00f6 13       		.uleb128 0x13
 1581 00f7 00       		.byte	0
 1582 00f8 00       		.byte	0
 1583 00f9 12       		.uleb128 0x12
 1584 00fa 0B       		.uleb128 0xb
 1585 00fb 01       		.byte	0x1
 1586 00fc 11       		.uleb128 0x11
ARM GAS  C:\Users\Joseph\AppData\Local\Temp\ccvarZmH.s 			page 35


 1587 00fd 01       		.uleb128 0x1
 1588 00fe 12       		.uleb128 0x12
 1589 00ff 06       		.uleb128 0x6
 1590 0100 01       		.uleb128 0x1
 1591 0101 13       		.uleb128 0x13
 1592 0102 00       		.byte	0
 1593 0103 00       		.byte	0
 1594 0104 13       		.uleb128 0x13
 1595 0105 0B       		.uleb128 0xb
 1596 0106 01       		.byte	0x1
 1597 0107 11       		.uleb128 0x11
 1598 0108 01       		.uleb128 0x1
 1599 0109 12       		.uleb128 0x12
 1600 010a 06       		.uleb128 0x6
 1601 010b 00       		.byte	0
 1602 010c 00       		.byte	0
 1603 010d 14       		.uleb128 0x14
 1604 010e 34       		.uleb128 0x34
 1605 010f 00       		.byte	0
 1606 0110 03       		.uleb128 0x3
 1607 0111 0E       		.uleb128 0xe
 1608 0112 3A       		.uleb128 0x3a
 1609 0113 0B       		.uleb128 0xb
 1610 0114 3B       		.uleb128 0x3b
 1611 0115 05       		.uleb128 0x5
 1612 0116 49       		.uleb128 0x49
 1613 0117 13       		.uleb128 0x13
 1614 0118 02       		.uleb128 0x2
 1615 0119 18       		.uleb128 0x18
 1616 011a 00       		.byte	0
 1617 011b 00       		.byte	0
 1618 011c 15       		.uleb128 0x15
 1619 011d 34       		.uleb128 0x34
 1620 011e 00       		.byte	0
 1621 011f 03       		.uleb128 0x3
 1622 0120 0E       		.uleb128 0xe
 1623 0121 3A       		.uleb128 0x3a
 1624 0122 0B       		.uleb128 0xb
 1625 0123 3B       		.uleb128 0x3b
 1626 0124 0B       		.uleb128 0xb
 1627 0125 49       		.uleb128 0x49
 1628 0126 13       		.uleb128 0x13
 1629 0127 3F       		.uleb128 0x3f
 1630 0128 19       		.uleb128 0x19
 1631 0129 02       		.uleb128 0x2
 1632 012a 18       		.uleb128 0x18
 1633 012b 00       		.byte	0
 1634 012c 00       		.byte	0
 1635 012d 16       		.uleb128 0x16
 1636 012e 35       		.uleb128 0x35
 1637 012f 00       		.byte	0
 1638 0130 49       		.uleb128 0x49
 1639 0131 13       		.uleb128 0x13
 1640 0132 00       		.byte	0
 1641 0133 00       		.byte	0
 1642 0134 00       		.byte	0
 1643              		.section	.debug_aranges,"",%progbits
ARM GAS  C:\Users\Joseph\AppData\Local\Temp\ccvarZmH.s 			page 36


 1644 0000 24000000 		.4byte	0x24
 1645 0004 0200     		.2byte	0x2
 1646 0006 00000000 		.4byte	.Ldebug_info0
 1647 000a 04       		.byte	0x4
 1648 000b 00       		.byte	0
 1649 000c 0000     		.2byte	0
 1650 000e 0000     		.2byte	0
 1651 0010 00000000 		.4byte	.LFB34
 1652 0014 9A000000 		.4byte	.LFE34-.LFB34
 1653 0018 00000000 		.4byte	.LFB35
 1654 001c 9A040000 		.4byte	.LFE35-.LFB35
 1655 0020 00000000 		.4byte	0
 1656 0024 00000000 		.4byte	0
 1657              		.section	.debug_ranges,"",%progbits
 1658              	.Ldebug_ranges0:
 1659 0000 00000000 		.4byte	.LFB34
 1660 0004 9A000000 		.4byte	.LFE34
 1661 0008 00000000 		.4byte	.LFB35
 1662 000c 9A040000 		.4byte	.LFE35
 1663 0010 00000000 		.4byte	0
 1664 0014 00000000 		.4byte	0
 1665              		.section	.debug_line,"",%progbits
 1666              	.Ldebug_line0:
 1667 0000 47020000 		.section	.debug_str,"MS",%progbits,1
 1667      02004401 
 1667      00000201 
 1667      FB0E0D00 
 1667      01010101 
 1668              	.LASF9:
 1669 0000 6C6F6E67 		.ascii	"long long int\000"
 1669      206C6F6E 
 1669      6720696E 
 1669      7400
 1670              	.LASF32:
 1671 000e 6D696E75 		.ascii	"minutes\000"
 1671      74657300 
 1672              	.LASF40:
 1673 0016 63616C69 		.ascii	"calibrateTimeState\000"
 1673      62726174 
 1673      6554696D 
 1673      65537461 
 1673      746500
 1674              	.LASF0:
 1675 0029 5F5F696E 		.ascii	"__int8_t\000"
 1675      74385F74 
 1675      00
 1676              	.LASF1:
 1677 0032 5F5F7569 		.ascii	"__uint8_t\000"
 1677      6E74385F 
 1677      7400
 1678              	.LASF23:
 1679 003c 7765656B 		.ascii	"weekday\000"
 1679      64617900 
 1680              	.LASF46:
 1681 0044 64617461 		.ascii	"dataIn\000"
 1681      496E00
 1682              	.LASF41:
ARM GAS  C:\Users\Joseph\AppData\Local\Temp\ccvarZmH.s 			page 37


 1683 004b 636F756E 		.ascii	"count\000"
 1683      7400
 1684              	.LASF51:
 1685 0051 6E756D41 		.ascii	"numAlarms\000"
 1685      6C61726D 
 1685      7300
 1686              	.LASF5:
 1687 005b 5F5F7569 		.ascii	"__uint16_t\000"
 1687      6E743136 
 1687      5F7400
 1688              	.LASF24:
 1689 0066 6D6F6E74 		.ascii	"month\000"
 1689      6800
 1690              	.LASF43:
 1691 006c 63686563 		.ascii	"check\000"
 1691      6B00
 1692              	.LASF12:
 1693 0072 696E7438 		.ascii	"int8_t\000"
 1693      5F7400
 1694              	.LASF49:
 1695 0079 6C656444 		.ascii	"ledDelay\000"
 1695      656C6179 
 1695      00
 1696              	.LASF16:
 1697 0082 666C6F61 		.ascii	"float\000"
 1697      7400
 1698              	.LASF10:
 1699 0088 6C6F6E67 		.ascii	"long long unsigned int\000"
 1699      206C6F6E 
 1699      6720756E 
 1699      7369676E 
 1699      65642069 
 1700              	.LASF57:
 1701 009f 6E657754 		.ascii	"newTime\000"
 1701      696D6500 
 1702              	.LASF3:
 1703 00a7 756E7369 		.ascii	"unsigned char\000"
 1703      676E6564 
 1703      20636861 
 1703      7200
 1704              	.LASF48:
 1705 00b5 62797465 		.ascii	"byteNum\000"
 1705      4E756D00 
 1706              	.LASF42:
 1707 00bd 72656769 		.ascii	"registerValue\000"
 1707      73746572 
 1707      56616C75 
 1707      6500
 1708              	.LASF6:
 1709 00cb 73686F72 		.ascii	"short unsigned int\000"
 1709      7420756E 
 1709      7369676E 
 1709      65642069 
 1709      6E7400
 1710              	.LASF33:
 1711 00de 616C6172 		.ascii	"alarm\000"
 1711      6D00
ARM GAS  C:\Users\Joseph\AppData\Local\Temp\ccvarZmH.s 			page 38


 1712              	.LASF22:
 1713 00e4 686F7572 		.ascii	"hour\000"
 1713      00
 1714              	.LASF37:
 1715 00e9 64697370 		.ascii	"displayTestAlarm\000"
 1715      6C617954 
 1715      65737441 
 1715      6C61726D 
 1715      00
 1716              	.LASF27:
 1717 00fa 75706461 		.ascii	"updateDisplay\000"
 1717      74654469 
 1717      73706C61 
 1717      7900
 1718              	.LASF35:
 1719 0108 64697370 		.ascii	"displayTime\000"
 1719      6C617954 
 1719      696D6500 
 1720              	.LASF25:
 1721 0114 79656172 		.ascii	"year\000"
 1721      00
 1722              	.LASF34:
 1723 0119 616C6172 		.ascii	"alarmState\000"
 1723      6D537461 
 1723      746500
 1724              	.LASF8:
 1725 0124 6C6F6E67 		.ascii	"long unsigned int\000"
 1725      20756E73 
 1725      69676E65 
 1725      6420696E 
 1725      7400
 1726              	.LASF38:
 1727 0136 66756C6C 		.ascii	"fullUpdateState\000"
 1727      55706461 
 1727      74655374 
 1727      61746500 
 1728              	.LASF36:
 1729 0146 64697370 		.ascii	"displayState\000"
 1729      6C617953 
 1729      74617465 
 1729      00
 1730              	.LASF28:
 1731 0153 6D61696E 		.ascii	"main\000"
 1731      00
 1732              	.LASF53:
 1733 0158 474E5520 		.ascii	"GNU C 4.9.3 20150303 (release) [ARM/embedded-4_9-br"
 1733      4320342E 
 1733      392E3320 
 1733      32303135 
 1733      30333033 
 1734 018b 616E6368 		.ascii	"anch revision 221220] -mcpu=cortex-m0 -mthumb -g -O"
 1734      20726576 
 1734      6973696F 
 1734      6E203232 
 1734      31323230 
 1735 01be 30202D66 		.ascii	"0 -ffunction-sections -ffat-lto-objects\000"
 1735      66756E63 
ARM GAS  C:\Users\Joseph\AppData\Local\Temp\ccvarZmH.s 			page 39


 1735      74696F6E 
 1735      2D736563 
 1735      74696F6E 
 1736              	.LASF55:
 1737 01e6 433A5C55 		.ascii	"C:\\Users\\Joseph\\Documents\\CY8CKIT-049-42xx\\1.0"
 1737      73657273 
 1737      5C4A6F73 
 1737      6570685C 
 1737      446F6375 
 1738 0214 5C466972 		.ascii	"\\Firmware\\SCB_Bootloader\\Sunrise Clock.cydsn\000"
 1738      6D776172 
 1738      655C5343 
 1738      425F426F 
 1738      6F746C6F 
 1739              	.LASF20:
 1740 0241 7365636F 		.ascii	"second\000"
 1740      6E6400
 1741              	.LASF11:
 1742 0248 756E7369 		.ascii	"unsigned int\000"
 1742      676E6564 
 1742      20696E74 
 1742      00
 1743              	.LASF47:
 1744 0255 52656365 		.ascii	"ReceiveFlag\000"
 1744      69766546 
 1744      6C616700 
 1745              	.LASF13:
 1746 0261 75696E74 		.ascii	"uint8_t\000"
 1746      385F7400 
 1747              	.LASF30:
 1748 0269 63757272 		.ascii	"currentTime\000"
 1748      656E7454 
 1748      696D6500 
 1749              	.LASF15:
 1750 0275 75696E74 		.ascii	"uint8\000"
 1750      3800
 1751              	.LASF56:
 1752 027b 74696D65 		.ascii	"time\000"
 1752      00
 1753              	.LASF29:
 1754 0280 636F6E74 		.ascii	"control3\000"
 1754      726F6C33 
 1754      00
 1755              	.LASF19:
 1756 0289 73697A65 		.ascii	"sizetype\000"
 1756      74797065 
 1756      00
 1757              	.LASF52:
 1758 0292 4D41585F 		.ascii	"MAX_ALARMS\000"
 1758      414C4152 
 1758      4D5300
 1759              	.LASF50:
 1760 029d 616C6172 		.ascii	"alarms\000"
 1760      6D7300
 1761              	.LASF31:
 1762 02a4 7365636F 		.ascii	"seconds\000"
 1762      6E647300 
ARM GAS  C:\Users\Joseph\AppData\Local\Temp\ccvarZmH.s 			page 40


 1763              	.LASF54:
 1764 02ac 6D61696E 		.ascii	"main.c\000"
 1764      2E6300
 1765              	.LASF18:
 1766 02b3 63686172 		.ascii	"char\000"
 1766      00
 1767              	.LASF4:
 1768 02b8 73686F72 		.ascii	"short int\000"
 1768      7420696E 
 1768      7400
 1769              	.LASF44:
 1770 02c2 6F757470 		.ascii	"output\000"
 1770      757400
 1771              	.LASF14:
 1772 02c9 75696E74 		.ascii	"uint16_t\000"
 1772      31365F74 
 1772      00
 1773              	.LASF7:
 1774 02d2 6C6F6E67 		.ascii	"long int\000"
 1774      20696E74 
 1774      00
 1775              	.LASF45:
 1776 02db 73656373 		.ascii	"secs\000"
 1776      00
 1777              	.LASF2:
 1778 02e0 7369676E 		.ascii	"signed char\000"
 1778      65642063 
 1778      68617200 
 1779              	.LASF17:
 1780 02ec 646F7562 		.ascii	"double\000"
 1780      6C6500
 1781              	.LASF39:
 1782 02f3 63616C69 		.ascii	"calibrateTimeAlarm\000"
 1782      62726174 
 1782      6554696D 
 1782      65416C61 
 1782      726D00
 1783              	.LASF26:
 1784 0306 6D696E73 		.ascii	"mins\000"
 1784      00
 1785              	.LASF21:
 1786 030b 6D696E75 		.ascii	"minute\000"
 1786      746500
 1787              		.ident	"GCC: (GNU Tools for ARM Embedded Processors) 4.9.3 20150303 (release) [ARM/embedded-4_9-br
