ARM GAS  C:\Users\Joseph\AppData\Local\Temp\ccoySzNJ.s 			page 1


   1              		.cpu cortex-m0
   2              		.fpu softvfp
   3              		.eabi_attribute 20, 1
   4              		.eabi_attribute 21, 1
   5              		.eabi_attribute 23, 3
   6              		.eabi_attribute 24, 1
   7              		.eabi_attribute 25, 1
   8              		.eabi_attribute 26, 1
   9              		.eabi_attribute 30, 6
  10              		.eabi_attribute 34, 0
  11              		.eabi_attribute 18, 4
  12              		.code	16
  13              		.file	"main.c"
  14              		.text
  15              	.Ltext0:
  16              		.cfi_sections	.debug_frame
  17              		.section	.rodata
  18              		.align	2
  19              	.LC0:
  20 0000 4572726F 		.ascii	"Error: Baterry backup did not work\012\015\000"
  20      723A2042 
  20      61746572 
  20      72792062 
  20      61636B75 
  21 0025 000000   		.align	2
  22              	.LC2:
  23 0028 4E6F7465 		.ascii	"Note: Power was lost. Battery backup successfull!\012"
  23      3A20506F 
  23      77657220 
  23      77617320 
  23      6C6F7374 
  24 005a 0D00     		.ascii	"\015\000"
  25              		.global	__aeabi_idivmod
  26              		.align	2
  27              	.LC4:
  28 005c 636F6E74 		.ascii	"control 3 :%X      \000"
  28      726F6C20 
  28      33203A25 
  28      58202020 
  28      20202000 
  29              		.align	2
  30              	.LC6:
  31 0070 79656172 		.ascii	"year: %d month: %d day:%d wkDay:%d %d:%2d:%d \012\015"
  31      3A202564 
  31      206D6F6E 
  31      74683A20 
  31      25642064 
  32 009f 00       		.ascii	"\000"
  33              		.section	.text.main,"ax",%progbits
  34              		.align	2
  35              		.global	main
  36              		.code	16
  37              		.thumb_func
  38              		.type	main, %function
  39              	main:
  40              	.LFB34:
  41              		.file 1 "main.c"
ARM GAS  C:\Users\Joseph\AppData\Local\Temp\ccoySzNJ.s 			page 2


   1:main.c        **** /* ========================================
   2:main.c        ****  *
   3:main.c        ****  * Copyright YOUR COMPANY, THE YEAR
   4:main.c        ****  * All Rights Reserved
   5:main.c        ****  * UNPUBLISHED, LICENSED SOFTWARE.
   6:main.c        ****  *
   7:main.c        ****  * CONFIDENTIAL AND PROPRIETARY INFORMATION
   8:main.c        ****  * WHICH IS THE PROPERTY OF your company.
   9:main.c        ****  *
  10:main.c        ****  * ========================================
  11:main.c        **** */
  12:main.c        **** #include <project.h>
  13:main.c        **** #include <stdio.h>
  14:main.c        **** #include <RTC.h>
  15:main.c        **** #include <SerialPrint.h>
  16:main.c        **** 
  17:main.c        **** 
  18:main.c        **** 
  19:main.c        **** int main()
  20:main.c        **** {
  42              		.loc 1 20 0
  43              		.cfi_startproc
  44 0000 F0B5     		push	{r4, r5, r6, r7, lr}
  45              		.cfi_def_cfa_offset 20
  46              		.cfi_offset 4, -20
  47              		.cfi_offset 5, -16
  48              		.cfi_offset 6, -12
  49              		.cfi_offset 7, -8
  50              		.cfi_offset 14, -4
  51 0002 ABB0     		sub	sp, sp, #172
  52              		.cfi_def_cfa_offset 192
  53 0004 06AF     		add	r7, sp, #24
  54              		.cfi_def_cfa 7, 168
  21:main.c        ****     /* Place your initialization/startup code here (e.g. MyInst_Start()) */
  22:main.c        ****     I2C_Start();
  55              		.loc 1 22 0
  56 0006 FFF7FEFF 		bl	I2C_Start
  23:main.c        ****     UART_1_Start();   
  57              		.loc 1 23 0
  58 000a FFF7FEFF 		bl	UART_1_Start
  24:main.c        **** 
  25:main.c        ****     CyGlobalIntEnable;  /* Uncomment this line to enable global interrupts. */
  59              		.loc 1 25 0
  60              	@ 25 "main.c" 1
  61 000e 62B6     		CPSIE   i
  62              	@ 0 "" 2
  26:main.c        ****     
  27:main.c        ****     //  check that rtc is in battery backup mode
  28:main.c        ****     uint8 control3 = readReg(CONTROL_REG_3) ;
  63              		.loc 1 28 0
  64              		.code	16
  65 0010 8723     		mov	r3, #135
  66 0012 0822     		mov	r2, #8
  67 0014 BA18     		add	r2, r7, r2
  68 0016 D418     		add	r4, r2, r3
  69 0018 0220     		mov	r0, #2
  70 001a FFF7FEFF 		bl	readReg
ARM GAS  C:\Users\Joseph\AppData\Local\Temp\ccoySzNJ.s 			page 3


  71 001e 031C     		mov	r3, r0
  72 0020 2370     		strb	r3, [r4]
  29:main.c        ****     if((control3 >>4) != 0xA){
  73              		.loc 1 29 0
  74 0022 8723     		mov	r3, #135
  75 0024 0822     		mov	r2, #8
  76 0026 9446     		mov	ip, r2
  77 0028 BC44     		add	ip, ip, r7
  78 002a 6344     		add	r3, r3, ip
  79 002c 1B78     		ldrb	r3, [r3]
  80 002e 1B09     		lsr	r3, r3, #4
  81 0030 DBB2     		uxtb	r3, r3
  82 0032 0A2B     		cmp	r3, #10
  83 0034 4ED0     		beq	.L2
  84              	.LBB2:
  30:main.c        ****         Pin_3_Write(1);
  85              		.loc 1 30 0
  86 0036 0120     		mov	r0, #1
  87 0038 FFF7FEFF 		bl	Pin_3_Write
  31:main.c        ****         CyDelay(1000);
  88              		.loc 1 31 0
  89 003c FA23     		mov	r3, #250
  90 003e 9B00     		lsl	r3, r3, #2
  91 0040 181C     		mov	r0, r3
  92 0042 FFF7FEFF 		bl	CyDelay
  32:main.c        ****         Pin_3_Write(0);
  93              		.loc 1 32 0
  94 0046 0020     		mov	r0, #0
  95 0048 FFF7FEFF 		bl	Pin_3_Write
  33:main.c        ****         CyDelay(1000);
  96              		.loc 1 33 0
  97 004c FA23     		mov	r3, #250
  98 004e 9B00     		lsl	r3, r3, #2
  99 0050 181C     		mov	r0, r3
 100 0052 FFF7FEFF 		bl	CyDelay
  34:main.c        ****         Pin_3_Write(1);
 101              		.loc 1 34 0
 102 0056 0120     		mov	r0, #1
 103 0058 FFF7FEFF 		bl	Pin_3_Write
  35:main.c        ****         CyDelay(1000);
 104              		.loc 1 35 0
 105 005c FA23     		mov	r3, #250
 106 005e 9B00     		lsl	r3, r3, #2
 107 0060 181C     		mov	r0, r3
 108 0062 FFF7FEFF 		bl	CyDelay
  36:main.c        ****         Pin_3_Write(0);
 109              		.loc 1 36 0
 110 0066 0020     		mov	r0, #0
 111 0068 FFF7FEFF 		bl	Pin_3_Write
  37:main.c        ****         
  38:main.c        ****         printlnNum(control3,'X');
 112              		.loc 1 38 0
 113 006c 8723     		mov	r3, #135
 114 006e 0822     		mov	r2, #8
 115 0070 9446     		mov	ip, r2
 116 0072 BC44     		add	ip, ip, r7
 117 0074 6344     		add	r3, r3, ip
ARM GAS  C:\Users\Joseph\AppData\Local\Temp\ccoySzNJ.s 			page 4


 118 0076 1B78     		ldrb	r3, [r3]
 119 0078 9BB2     		uxth	r3, r3
 120 007a 181C     		mov	r0, r3
 121 007c 5821     		mov	r1, #88
 122 007e FFF7FEFF 		bl	printlnNum
  39:main.c        ****         //changeHourMode(EVERYTHING_ENABLED);
  40:main.c        ****         uint8_t registerValue = 0xA0;// write 1010 to PM bits which enable directSwitching and disa
 123              		.loc 1 40 0
 124 0082 7F23     		mov	r3, #127
 125 0084 0822     		mov	r2, #8
 126 0086 9446     		mov	ip, r2
 127 0088 BC44     		add	ip, ip, r7
 128 008a 6344     		add	r3, r3, ip
 129 008c A022     		mov	r2, #160
 130 008e 1A70     		strb	r2, [r3]
  41:main.c        ****         writeReg(CONTROL_REG_3,registerValue); 
 131              		.loc 1 41 0
 132 0090 7F23     		mov	r3, #127
 133 0092 0822     		mov	r2, #8
 134 0094 9446     		mov	ip, r2
 135 0096 BC44     		add	ip, ip, r7
 136 0098 6344     		add	r3, r3, ip
 137 009a 1B78     		ldrb	r3, [r3]
 138 009c 0220     		mov	r0, #2
 139 009e 191C     		mov	r1, r3
 140 00a0 FFF7FEFF 		bl	writeReg
  42:main.c        ****         control3 = readReg(CONTROL_REG_3);
 141              		.loc 1 42 0
 142 00a4 8723     		mov	r3, #135
 143 00a6 0822     		mov	r2, #8
 144 00a8 BA18     		add	r2, r7, r2
 145 00aa D418     		add	r4, r2, r3
 146 00ac 0220     		mov	r0, #2
 147 00ae FFF7FEFF 		bl	readReg
 148 00b2 031C     		mov	r3, r0
 149 00b4 2370     		strb	r3, [r4]
  43:main.c        ****         printlnNum(control3,'X');
 150              		.loc 1 43 0
 151 00b6 8723     		mov	r3, #135
 152 00b8 0822     		mov	r2, #8
 153 00ba 9446     		mov	ip, r2
 154 00bc BC44     		add	ip, ip, r7
 155 00be 6344     		add	r3, r3, ip
 156 00c0 1B78     		ldrb	r3, [r3]
 157 00c2 9BB2     		uxth	r3, r3
 158 00c4 181C     		mov	r0, r3
 159 00c6 5821     		mov	r1, #88
 160 00c8 FFF7FEFF 		bl	printlnNum
  44:main.c        ****         UART_1_UartPutString("Error: Baterry backup did not work\n\r");
 161              		.loc 1 44 0
 162 00cc 934B     		ldr	r3, .L7
 163 00ce 181C     		mov	r0, r3
 164 00d0 FFF7FEFF 		bl	UART_1_UartPutString
 165              	.L2:
 166              	.LBE2:
  45:main.c        ****     }
  46:main.c        ****     
ARM GAS  C:\Users\Joseph\AppData\Local\Temp\ccoySzNJ.s 			page 5


  47:main.c        ****     if((control3 & 0x0F) != 0){
 167              		.loc 1 47 0
 168 00d4 8723     		mov	r3, #135
 169 00d6 0822     		mov	r2, #8
 170 00d8 9446     		mov	ip, r2
 171 00da BC44     		add	ip, ip, r7
 172 00dc 6344     		add	r3, r3, ip
 173 00de 1B78     		ldrb	r3, [r3]
 174 00e0 0F22     		mov	r2, #15
 175 00e2 1340     		and	r3, r2
 176 00e4 31D0     		beq	.L3
  48:main.c        ****         Pin_2_Write(1);
 177              		.loc 1 48 0
 178 00e6 0120     		mov	r0, #1
 179 00e8 FFF7FEFF 		bl	Pin_2_Write
  49:main.c        ****         CyDelay(2000);
 180              		.loc 1 49 0
 181 00ec FA23     		mov	r3, #250
 182 00ee DB00     		lsl	r3, r3, #3
 183 00f0 181C     		mov	r0, r3
 184 00f2 FFF7FEFF 		bl	CyDelay
  50:main.c        ****         Pin_2_Write(0);
 185              		.loc 1 50 0
 186 00f6 0020     		mov	r0, #0
 187 00f8 FFF7FEFF 		bl	Pin_2_Write
  51:main.c        ****         
  52:main.c        ****         printlnNum(control3,'X');
 188              		.loc 1 52 0
 189 00fc 8723     		mov	r3, #135
 190 00fe 0822     		mov	r2, #8
 191 0100 9446     		mov	ip, r2
 192 0102 BC44     		add	ip, ip, r7
 193 0104 6344     		add	r3, r3, ip
 194 0106 1B78     		ldrb	r3, [r3]
 195 0108 9BB2     		uxth	r3, r3
 196 010a 181C     		mov	r0, r3
 197 010c 5821     		mov	r1, #88
 198 010e FFF7FEFF 		bl	printlnNum
  53:main.c        **** 
  54:main.c        **** 
  55:main.c        ****         writeReg(CONTROL_REG_3,0xA0); 
 199              		.loc 1 55 0
 200 0112 0220     		mov	r0, #2
 201 0114 A021     		mov	r1, #160
 202 0116 FFF7FEFF 		bl	writeReg
  56:main.c        ****         control3 = readReg(CONTROL_REG_3);
 203              		.loc 1 56 0
 204 011a 8723     		mov	r3, #135
 205 011c 0822     		mov	r2, #8
 206 011e BA18     		add	r2, r7, r2
 207 0120 D418     		add	r4, r2, r3
 208 0122 0220     		mov	r0, #2
 209 0124 FFF7FEFF 		bl	readReg
 210 0128 031C     		mov	r3, r0
 211 012a 2370     		strb	r3, [r4]
  57:main.c        ****         printlnNum(control3,'X');
 212              		.loc 1 57 0
ARM GAS  C:\Users\Joseph\AppData\Local\Temp\ccoySzNJ.s 			page 6


 213 012c 8723     		mov	r3, #135
 214 012e 0822     		mov	r2, #8
 215 0130 9446     		mov	ip, r2
 216 0132 BC44     		add	ip, ip, r7
 217 0134 6344     		add	r3, r3, ip
 218 0136 1B78     		ldrb	r3, [r3]
 219 0138 9BB2     		uxth	r3, r3
 220 013a 181C     		mov	r0, r3
 221 013c 5821     		mov	r1, #88
 222 013e FFF7FEFF 		bl	printlnNum
  58:main.c        ****         UART_1_UartPutString("Note: Power was lost. Battery backup successfull!\n\r");
 223              		.loc 1 58 0
 224 0142 774B     		ldr	r3, .L7+4
 225 0144 181C     		mov	r0, r3
 226 0146 FFF7FEFF 		bl	UART_1_UartPutString
 227              	.L3:
  59:main.c        ****     
  60:main.c        ****     }
  61:main.c        **** //    UART_1_UartPutString("Enabling alarm interupt ...\n\r");
  62:main.c        **** //    uint8_t control1 = readReg(CONTROL_REG_1);
  63:main.c        **** //    printlnNum(control1,'X');
  64:main.c        **** //    writeReg(CONTROL_REG_1,(control1 | 0x02));
  65:main.c        **** //    printlnNum(control1,'X');
  66:main.c        ****     
  67:main.c        ****     struct time currentTime;
  68:main.c        ****     //currentTime.second = 21;
  69:main.c        ****     uint8 hour;
  70:main.c        ****     uint8 seconds;
  71:main.c        ****     uint8 minutes;
  72:main.c        ****     
  73:main.c        ****     
  74:main.c        ****     currentTime.year =17;
 228              		.loc 1 74 0
 229 014a 7423     		mov	r3, #116
 230 014c 0822     		mov	r2, #8
 231 014e 9446     		mov	ip, r2
 232 0150 BC44     		add	ip, ip, r7
 233 0152 6344     		add	r3, r3, ip
 234 0154 1122     		mov	r2, #17
 235 0156 9A71     		strb	r2, [r3, #6]
  75:main.c        ****     currentTime.month=8;
 236              		.loc 1 75 0
 237 0158 7423     		mov	r3, #116
 238 015a 0822     		mov	r2, #8
 239 015c 9446     		mov	ip, r2
 240 015e BC44     		add	ip, ip, r7
 241 0160 6344     		add	r3, r3, ip
 242 0162 0822     		mov	r2, #8
 243 0164 5A71     		strb	r2, [r3, #5]
  76:main.c        ****     currentTime.day = 8;
 244              		.loc 1 76 0
 245 0166 7423     		mov	r3, #116
 246 0168 0822     		mov	r2, #8
 247 016a 9446     		mov	ip, r2
 248 016c BC44     		add	ip, ip, r7
 249 016e 6344     		add	r3, r3, ip
 250 0170 0822     		mov	r2, #8
ARM GAS  C:\Users\Joseph\AppData\Local\Temp\ccoySzNJ.s 			page 7


 251 0172 DA70     		strb	r2, [r3, #3]
  77:main.c        ****     currentTime.weekday = TUESDAY;
 252              		.loc 1 77 0
 253 0174 7423     		mov	r3, #116
 254 0176 0822     		mov	r2, #8
 255 0178 9446     		mov	ip, r2
 256 017a BC44     		add	ip, ip, r7
 257 017c 6344     		add	r3, r3, ip
 258 017e 0222     		mov	r2, #2
 259 0180 1A71     		strb	r2, [r3, #4]
  78:main.c        ****     currentTime.hour = 22;
 260              		.loc 1 78 0
 261 0182 7423     		mov	r3, #116
 262 0184 0822     		mov	r2, #8
 263 0186 9446     		mov	ip, r2
 264 0188 BC44     		add	ip, ip, r7
 265 018a 6344     		add	r3, r3, ip
 266 018c 1622     		mov	r2, #22
 267 018e 9A70     		strb	r2, [r3, #2]
  79:main.c        ****     currentTime.minute=50;
 268              		.loc 1 79 0
 269 0190 7423     		mov	r3, #116
 270 0192 0822     		mov	r2, #8
 271 0194 9446     		mov	ip, r2
 272 0196 BC44     		add	ip, ip, r7
 273 0198 6344     		add	r3, r3, ip
 274 019a 3222     		mov	r2, #50
 275 019c 5A70     		strb	r2, [r3, #1]
  80:main.c        ****     currentTime.second = 45;
 276              		.loc 1 80 0
 277 019e 7423     		mov	r3, #116
 278 01a0 0822     		mov	r2, #8
 279 01a2 9446     		mov	ip, r2
 280 01a4 BC44     		add	ip, ip, r7
 281 01a6 6344     		add	r3, r3, ip
 282 01a8 2D22     		mov	r2, #45
 283 01aa 1A70     		strb	r2, [r3]
  81:main.c        ****     
  82:main.c        ****     struct time alarm;
  83:main.c        ****     createAlarmTEST(&alarm,0xFF,0);
 284              		.loc 1 83 0
 285 01ac 6C23     		mov	r3, #108
 286 01ae 0822     		mov	r2, #8
 287 01b0 9446     		mov	ip, r2
 288 01b2 BC44     		add	ip, ip, r7
 289 01b4 6344     		add	r3, r3, ip
 290 01b6 181C     		mov	r0, r3
 291 01b8 FF21     		mov	r1, #255
 292 01ba 0022     		mov	r2, #0
 293 01bc FFF7FEFF 		bl	createAlarmTEST
  84:main.c        **** 
  85:main.c        ****     //setTime(&currentTime);
  86:main.c        ****     int count = 0;
 294              		.loc 1 86 0
 295 01c0 0023     		mov	r3, #0
 296 01c2 8022     		mov	r2, #128
 297 01c4 0821     		mov	r1, #8
ARM GAS  C:\Users\Joseph\AppData\Local\Temp\ccoySzNJ.s 			page 8


 298 01c6 8C46     		mov	ip, r1
 299 01c8 BC44     		add	ip, ip, r7
 300 01ca 6244     		add	r2, r2, ip
 301 01cc 1360     		str	r3, [r2]
 302              	.L6:
 303              	.LBB3:
  87:main.c        **** 
  88:main.c        **** for(;;)
  89:main.c        ****     { 
  90:main.c        ****         
  91:main.c        ****         //changeHourMode(HOURMODE_24);
  92:main.c        ****         //setHours(14);
  93:main.c        ****         //char bcd[10];
  94:main.c        ****         //sprintf(bcd,"hourbcd: %d",encodeHours24(2));
  95:main.c        ****         //UART_1_UartPutString(bcd);    
  96:main.c        ****            
  97:main.c        **** //        hour = getHours();
  98:main.c        **** //        seconds = getSec();
  99:main.c        **** //        minutes = getMin();
 100:main.c        **** 
 101:main.c        **** 
 102:main.c        ****         getTime(&currentTime);
 304              		.loc 1 102 0
 305 01ce 7423     		mov	r3, #116
 306 01d0 0822     		mov	r2, #8
 307 01d2 9446     		mov	ip, r2
 308 01d4 BC44     		add	ip, ip, r7
 309 01d6 6344     		add	r3, r3, ip
 310 01d8 181C     		mov	r0, r3
 311 01da FFF7FEFF 		bl	getTime
 103:main.c        ****         char check = (checkAlarm(&currentTime,&alarm));
 312              		.loc 1 103 0
 313 01de 7E23     		mov	r3, #126
 314 01e0 0822     		mov	r2, #8
 315 01e2 BA18     		add	r2, r7, r2
 316 01e4 D418     		add	r4, r2, r3
 317 01e6 7423     		mov	r3, #116
 318 01e8 0822     		mov	r2, #8
 319 01ea BA18     		add	r2, r7, r2
 320 01ec D218     		add	r2, r2, r3
 321 01ee 6C23     		mov	r3, #108
 322 01f0 0821     		mov	r1, #8
 323 01f2 8C46     		mov	ip, r1
 324 01f4 BC44     		add	ip, ip, r7
 325 01f6 6344     		add	r3, r3, ip
 326 01f8 101C     		mov	r0, r2
 327 01fa 191C     		mov	r1, r3
 328 01fc FFF7FEFF 		bl	checkAlarm
 329 0200 031C     		mov	r3, r0
 330 0202 2370     		strb	r3, [r4]
 104:main.c        ****         if(!check){
 331              		.loc 1 104 0
 332 0204 7E23     		mov	r3, #126
 333 0206 0822     		mov	r2, #8
 334 0208 9446     		mov	ip, r2
 335 020a BC44     		add	ip, ip, r7
 336 020c 6344     		add	r3, r3, ip
ARM GAS  C:\Users\Joseph\AppData\Local\Temp\ccoySzNJ.s 			page 9


 337 020e 1B78     		ldrb	r3, [r3]
 338 0210 002B     		cmp	r3, #0
 339 0212 0AD1     		bne	.L4
 105:main.c        ****         Pin_3_Write(1);
 340              		.loc 1 105 0
 341 0214 0120     		mov	r0, #1
 342 0216 FFF7FEFF 		bl	Pin_3_Write
 106:main.c        ****         CyDelay(1000);
 343              		.loc 1 106 0
 344 021a FA23     		mov	r3, #250
 345 021c 9B00     		lsl	r3, r3, #2
 346 021e 181C     		mov	r0, r3
 347 0220 FFF7FEFF 		bl	CyDelay
 107:main.c        ****         Pin_3_Write(0);
 348              		.loc 1 107 0
 349 0224 0020     		mov	r0, #0
 350 0226 FFF7FEFF 		bl	Pin_3_Write
 351              	.L4:
 108:main.c        ****         }
 109:main.c        **** 
 110:main.c        ****         
 111:main.c        ****         //printlnNum(currentTime.second,'d');
 112:main.c        ****         
 113:main.c        ****         char output[25];
 114:main.c        ****         char output2[75];
 115:main.c        ****         //uint8 control1 = readReg(CONTROL_REG_1);
 116:main.c        ****         //uint8 control2 = readReg(CONTROL_REG_2);
 117:main.c        ****         uint8 control3 = readReg(CONTROL_REG_3);
 352              		.loc 1 117 0
 353 022a 7D23     		mov	r3, #125
 354 022c 0822     		mov	r2, #8
 355 022e BA18     		add	r2, r7, r2
 356 0230 D418     		add	r4, r2, r3
 357 0232 0220     		mov	r0, #2
 358 0234 FFF7FEFF 		bl	readReg
 359 0238 031C     		mov	r3, r0
 360 023a 2370     		strb	r3, [r4]
 118:main.c        ****         if(count%25 ==0 ){
 361              		.loc 1 118 0
 362 023c 8023     		mov	r3, #128
 363 023e 0822     		mov	r2, #8
 364 0240 9446     		mov	ip, r2
 365 0242 BC44     		add	ip, ip, r7
 366 0244 6344     		add	r3, r3, ip
 367 0246 1B68     		ldr	r3, [r3]
 368 0248 181C     		mov	r0, r3
 369 024a 1921     		mov	r1, #25
 370 024c FFF7FEFF 		bl	__aeabi_idivmod
 371 0250 0B1E     		sub	r3, r1, #0
 372 0252 55D1     		bne	.L5
 119:main.c        ****         sprintf(output, "control 3 :%X      ", control3);
 373              		.loc 1 119 0
 374 0254 7D23     		mov	r3, #125
 375 0256 0822     		mov	r2, #8
 376 0258 9446     		mov	ip, r2
 377 025a BC44     		add	ip, ip, r7
 378 025c 6344     		add	r3, r3, ip
ARM GAS  C:\Users\Joseph\AppData\Local\Temp\ccoySzNJ.s 			page 10


 379 025e 1B78     		ldrb	r3, [r3]
 380 0260 5022     		mov	r2, #80
 381 0262 0821     		mov	r1, #8
 382 0264 7918     		add	r1, r7, r1
 383 0266 8918     		add	r1, r1, r2
 384 0268 2E4A     		ldr	r2, .L7+8
 385 026a 081C     		mov	r0, r1
 386 026c 111C     		mov	r1, r2
 387 026e 1A1C     		mov	r2, r3
 388 0270 FFF7FEFF 		bl	sprintf
 120:main.c        ****         sprintf(output2,"year: %d month: %d day:%d wkDay:%d %d:%2d:%d \n\r",currentTime.year,curren
 389              		.loc 1 120 0
 390 0274 7423     		mov	r3, #116
 391 0276 0822     		mov	r2, #8
 392 0278 9446     		mov	ip, r2
 393 027a BC44     		add	ip, ip, r7
 394 027c 6344     		add	r3, r3, ip
 395 027e 9B79     		ldrb	r3, [r3, #6]
 396 0280 7B60     		str	r3, [r7, #4]
 397 0282 7421     		mov	r1, #116
 398 0284 0823     		mov	r3, #8
 399 0286 FB18     		add	r3, r7, r3
 400 0288 5B18     		add	r3, r3, r1
 401 028a 5B79     		ldrb	r3, [r3, #5]
 402 028c 3B60     		str	r3, [r7]
 403 028e 7421     		mov	r1, #116
 404 0290 0823     		mov	r3, #8
 405 0292 FB18     		add	r3, r7, r3
 406 0294 5B18     		add	r3, r3, r1
 407 0296 DB78     		ldrb	r3, [r3, #3]
 408 0298 1E1C     		mov	r6, r3
 409 029a 7421     		mov	r1, #116
 410 029c 0823     		mov	r3, #8
 411 029e FB18     		add	r3, r7, r3
 412 02a0 5B18     		add	r3, r3, r1
 413 02a2 1B79     		ldrb	r3, [r3, #4]
 414 02a4 1D1C     		mov	r5, r3
 415 02a6 7421     		mov	r1, #116
 416 02a8 0823     		mov	r3, #8
 417 02aa FB18     		add	r3, r7, r3
 418 02ac 5B18     		add	r3, r3, r1
 419 02ae 9B78     		ldrb	r3, [r3, #2]
 420 02b0 1C1C     		mov	r4, r3
 421 02b2 7421     		mov	r1, #116
 422 02b4 0823     		mov	r3, #8
 423 02b6 FB18     		add	r3, r7, r3
 424 02b8 5B18     		add	r3, r3, r1
 425 02ba 5B78     		ldrb	r3, [r3, #1]
 426 02bc 181C     		mov	r0, r3
 427 02be 7421     		mov	r1, #116
 428 02c0 0823     		mov	r3, #8
 429 02c2 FB18     		add	r3, r7, r3
 430 02c4 5B18     		add	r3, r3, r1
 431 02c6 1B78     		ldrb	r3, [r3]
 432 02c8 191C     		mov	r1, r3
 433 02ca 0C23     		mov	r3, #12
 434 02cc FA18     		add	r2, r7, r3
ARM GAS  C:\Users\Joseph\AppData\Local\Temp\ccoySzNJ.s 			page 11


 435 02ce 164B     		ldr	r3, .L7+12
 436 02d0 0096     		str	r6, [sp]
 437 02d2 0195     		str	r5, [sp, #4]
 438 02d4 0294     		str	r4, [sp, #8]
 439 02d6 0390     		str	r0, [sp, #12]
 440 02d8 0491     		str	r1, [sp, #16]
 441 02da 101C     		mov	r0, r2
 442 02dc 191C     		mov	r1, r3
 443 02de 7A68     		ldr	r2, [r7, #4]
 444 02e0 3B68     		ldr	r3, [r7]
 445 02e2 FFF7FEFF 		bl	sprintf
 121:main.c        ****         //sprintf(output2," %d:%2d:%d \n\r",hour, minutes,seconds);
 122:main.c        ****         UART_1_UartPutString(output);
 446              		.loc 1 122 0
 447 02e6 5023     		mov	r3, #80
 448 02e8 0822     		mov	r2, #8
 449 02ea 9446     		mov	ip, r2
 450 02ec BC44     		add	ip, ip, r7
 451 02ee 6344     		add	r3, r3, ip
 452 02f0 181C     		mov	r0, r3
 453 02f2 FFF7FEFF 		bl	UART_1_UartPutString
 123:main.c        ****         UART_1_UartPutString(output2);
 454              		.loc 1 123 0
 455 02f6 0C23     		mov	r3, #12
 456 02f8 FB18     		add	r3, r7, r3
 457 02fa 181C     		mov	r0, r3
 458 02fc FFF7FEFF 		bl	UART_1_UartPutString
 459              	.L5:
 124:main.c        ****         }
 125:main.c        **** 
 126:main.c        ****         count++;
 460              		.loc 1 126 0
 461 0300 8023     		mov	r3, #128
 462 0302 0822     		mov	r2, #8
 463 0304 9446     		mov	ip, r2
 464 0306 BC44     		add	ip, ip, r7
 465 0308 6344     		add	r3, r3, ip
 466 030a 1B68     		ldr	r3, [r3]
 467 030c 0133     		add	r3, r3, #1
 468 030e 8022     		mov	r2, #128
 469 0310 0821     		mov	r1, #8
 470 0312 8C46     		mov	ip, r1
 471 0314 BC44     		add	ip, ip, r7
 472 0316 6244     		add	r2, r2, ip
 473 0318 1360     		str	r3, [r2]
 474              	.LBE3:
 127:main.c        ****         //softReset();
 128:main.c        ****         //year:%d,month%d,day:%d,wkday:%d currentTime.year,currentTime.month,currentTime.day,curren
 129:main.c        ****         
 130:main.c        ****     }    /* Place your application code here. */
 475              		.loc 1 130 0
 476 031a 58E7     		b	.L6
 477              	.L8:
 478              		.align	2
 479              	.L7:
 480 031c 00000000 		.word	.LC0
 481 0320 28000000 		.word	.LC2
ARM GAS  C:\Users\Joseph\AppData\Local\Temp\ccoySzNJ.s 			page 12


 482 0324 5C000000 		.word	.LC4
 483 0328 70000000 		.word	.LC6
 484              		.cfi_endproc
 485              	.LFE34:
 486              		.size	main, .-main
 487              		.text
 488              	.Letext0:
 489              		.file 2 "c:\\program files (x86)\\cypress\\psoc creator\\4.0\\psoc creator\\import\\gnu\\arm\\4.9.
 490              		.file 3 "c:\\program files (x86)\\cypress\\psoc creator\\4.0\\psoc creator\\import\\gnu\\arm\\4.9.
 491              		.file 4 "Generated_Source\\PSoC4/cytypes.h"
 492              		.file 5 "./RTC.h"