ARM GAS  C:\Users\Joseph\AppData\Local\Temp\ccjrQg7j.s 			page 1


   1              		.cpu cortex-m0
   2              		.fpu softvfp
   3              		.eabi_attribute 20, 1
   4              		.eabi_attribute 21, 1
   5              		.eabi_attribute 23, 3
   6              		.eabi_attribute 24, 1
   7              		.eabi_attribute 25, 1
   8              		.eabi_attribute 26, 1
   9              		.eabi_attribute 30, 6
  10              		.eabi_attribute 34, 0
  11              		.eabi_attribute 18, 4
  12              		.code	16
  13              		.file	"RTC.c"
  14              		.text
  15              	.Ltext0:
  16              		.cfi_sections	.debug_frame
  17              		.section	.text.changeHourMode,"ax",%progbits
  18              		.align	2
  19              		.global	changeHourMode
  20              		.code	16
  21              		.thumb_func
  22              		.type	changeHourMode, %function
  23              	changeHourMode:
  24              	.LFB34:
  25              		.file 1 "RTC.c"
   1:RTC.c         **** /* ========================================
   2:RTC.c         ****  *
   3:RTC.c         ****  * Copyright YOUR COMPANY, THE YEAR
   4:RTC.c         ****  * All Rights Reserved
   5:RTC.c         ****  * UNPUBLISHED, LICENSED SOFTWARE.
   6:RTC.c         ****  *
   7:RTC.c         ****  * CONFIDENTIAL AND PROPRIETARY INFORMATION
   8:RTC.c         ****  * WHICH IS THE PROPERTY OF your company.
   9:RTC.c         ****  *
  10:RTC.c         ****  * ========================================
  11:RTC.c         **** */
  12:RTC.c         **** 
  13:RTC.c         **** #include <RTC.h>
  14:RTC.c         **** 
  15:RTC.c         **** void changeHourMode(uint8 mode){
  26              		.loc 1 15 0
  27              		.cfi_startproc
  28 0000 90B5     		push	{r4, r7, lr}
  29              		.cfi_def_cfa_offset 12
  30              		.cfi_offset 4, -12
  31              		.cfi_offset 7, -8
  32              		.cfi_offset 14, -4
  33 0002 85B0     		sub	sp, sp, #20
  34              		.cfi_def_cfa_offset 32
  35 0004 00AF     		add	r7, sp, #0
  36              		.cfi_def_cfa_register 7
  37 0006 021C     		mov	r2, r0
  38 0008 FB1D     		add	r3, r7, #7
  39 000a 1A70     		strb	r2, [r3]
  16:RTC.c         ****     
  17:RTC.c         ****     uint8 controlReg = readReg(CONTROL_REG_1);
  40              		.loc 1 17 0
ARM GAS  C:\Users\Joseph\AppData\Local\Temp\ccjrQg7j.s 			page 2


  41 000c 0E23     		mov	r3, #14
  42 000e FC18     		add	r4, r7, r3
  43 0010 0020     		mov	r0, #0
  44 0012 FFF7FEFF 		bl	readReg
  45 0016 031C     		mov	r3, r0
  46 0018 2370     		strb	r3, [r4]
  18:RTC.c         ****     uint8 value;
  19:RTC.c         **** 
  20:RTC.c         ****     if(mode == HOURMODE_12){
  47              		.loc 1 20 0
  48 001a FB1D     		add	r3, r7, #7
  49 001c 1B78     		ldrb	r3, [r3]
  50 001e 082B     		cmp	r3, #8
  51 0020 08D1     		bne	.L2
  21:RTC.c         ****         
  22:RTC.c         ****         value = controlReg | HOURMODE_12;
  52              		.loc 1 22 0
  53 0022 0F23     		mov	r3, #15
  54 0024 FB18     		add	r3, r7, r3
  55 0026 0E22     		mov	r2, #14
  56 0028 BA18     		add	r2, r7, r2
  57 002a 1278     		ldrb	r2, [r2]
  58 002c 0821     		mov	r1, #8
  59 002e 0A43     		orr	r2, r1
  60 0030 1A70     		strb	r2, [r3]
  61 0032 0BE0     		b	.L3
  62              	.L2:
  23:RTC.c         ****     }
  24:RTC.c         ****     else if(mode == HOURMODE_24){
  63              		.loc 1 24 0
  64 0034 FB1D     		add	r3, r7, #7
  65 0036 1B78     		ldrb	r3, [r3]
  66 0038 F72B     		cmp	r3, #247
  67 003a 07D1     		bne	.L3
  25:RTC.c         ****         
  26:RTC.c         ****         value = controlReg & HOURMODE_24; 
  68              		.loc 1 26 0
  69 003c 0F23     		mov	r3, #15
  70 003e FB18     		add	r3, r7, r3
  71 0040 0E22     		mov	r2, #14
  72 0042 BA18     		add	r2, r7, r2
  73 0044 1278     		ldrb	r2, [r2]
  74 0046 0821     		mov	r1, #8
  75 0048 8A43     		bic	r2, r1
  76 004a 1A70     		strb	r2, [r3]
  77              	.L3:
  27:RTC.c         ****     }
  28:RTC.c         ****     
  29:RTC.c         ****     writeReg(CONTROL_REG_1, value);
  78              		.loc 1 29 0
  79 004c 0F23     		mov	r3, #15
  80 004e FB18     		add	r3, r7, r3
  81 0050 1B78     		ldrb	r3, [r3]
  82 0052 0020     		mov	r0, #0
  83 0054 191C     		mov	r1, r3
  84 0056 FFF7FEFF 		bl	writeReg
  30:RTC.c         **** 
ARM GAS  C:\Users\Joseph\AppData\Local\Temp\ccjrQg7j.s 			page 3


  31:RTC.c         **** }
  85              		.loc 1 31 0
  86 005a BD46     		mov	sp, r7
  87 005c 05B0     		add	sp, sp, #20
  88              		@ sp needed
  89 005e 90BD     		pop	{r4, r7, pc}
  90              		.cfi_endproc
  91              	.LFE34:
  92              		.size	changeHourMode, .-changeHourMode
  93              		.section	.text.changePowerMode,"ax",%progbits
  94              		.align	2
  95              		.global	changePowerMode
  96              		.code	16
  97              		.thumb_func
  98              		.type	changePowerMode, %function
  99              	changePowerMode:
 100              	.LFB35:
  32:RTC.c         **** 
  33:RTC.c         **** void changePowerMode(uint8 mode){
 101              		.loc 1 33 0
 102              		.cfi_startproc
 103 0000 80B5     		push	{r7, lr}
 104              		.cfi_def_cfa_offset 8
 105              		.cfi_offset 7, -8
 106              		.cfi_offset 14, -4
 107 0002 82B0     		sub	sp, sp, #8
 108              		.cfi_def_cfa_offset 16
 109 0004 00AF     		add	r7, sp, #0
 110              		.cfi_def_cfa_register 7
 111 0006 021C     		mov	r2, r0
 112 0008 FB1D     		add	r3, r7, #7
 113 000a 1A70     		strb	r2, [r3]
  34:RTC.c         ****     
  35:RTC.c         ****     writeReg(CONTROL_REG_3, mode);
 114              		.loc 1 35 0
 115 000c FB1D     		add	r3, r7, #7
 116 000e 1B78     		ldrb	r3, [r3]
 117 0010 0220     		mov	r0, #2
 118 0012 191C     		mov	r1, r3
 119 0014 FFF7FEFF 		bl	writeReg
  36:RTC.c         **** 
  37:RTC.c         **** }
 120              		.loc 1 37 0
 121 0018 BD46     		mov	sp, r7
 122 001a 02B0     		add	sp, sp, #8
 123              		@ sp needed
 124 001c 80BD     		pop	{r7, pc}
 125              		.cfi_endproc
 126              	.LFE35:
 127              		.size	changePowerMode, .-changePowerMode
 128 001e C046     		.section	.text.setSec,"ax",%progbits
 129              		.align	2
 130              		.global	setSec
 131              		.code	16
 132              		.thumb_func
 133              		.type	setSec, %function
 134              	setSec:
ARM GAS  C:\Users\Joseph\AppData\Local\Temp\ccjrQg7j.s 			page 4


 135              	.LFB36:
  38:RTC.c         **** 
  39:RTC.c         **** 
  40:RTC.c         **** void setSec(uint8 sec){
 136              		.loc 1 40 0
 137              		.cfi_startproc
 138 0000 90B5     		push	{r4, r7, lr}
 139              		.cfi_def_cfa_offset 12
 140              		.cfi_offset 4, -12
 141              		.cfi_offset 7, -8
 142              		.cfi_offset 14, -4
 143 0002 85B0     		sub	sp, sp, #20
 144              		.cfi_def_cfa_offset 32
 145 0004 00AF     		add	r7, sp, #0
 146              		.cfi_def_cfa_register 7
 147 0006 021C     		mov	r2, r0
 148 0008 FB1D     		add	r3, r7, #7
 149 000a 1A70     		strb	r2, [r3]
  41:RTC.c         **** 
  42:RTC.c         ****     uint8 secondsBCD = encodeSec(sec);
 150              		.loc 1 42 0
 151 000c 0F23     		mov	r3, #15
 152 000e FC18     		add	r4, r7, r3
 153 0010 FB1D     		add	r3, r7, #7
 154 0012 1B78     		ldrb	r3, [r3]
 155 0014 181C     		mov	r0, r3
 156 0016 FFF7FEFF 		bl	encodeSec
 157 001a 031C     		mov	r3, r0
 158 001c 2370     		strb	r3, [r4]
  43:RTC.c         ****     
  44:RTC.c         ****     writeReg(SECONDS_REG, secondsBCD);
 159              		.loc 1 44 0
 160 001e 0F23     		mov	r3, #15
 161 0020 FB18     		add	r3, r7, r3
 162 0022 1B78     		ldrb	r3, [r3]
 163 0024 0320     		mov	r0, #3
 164 0026 191C     		mov	r1, r3
 165 0028 FFF7FEFF 		bl	writeReg
  45:RTC.c         **** }
 166              		.loc 1 45 0
 167 002c BD46     		mov	sp, r7
 168 002e 05B0     		add	sp, sp, #20
 169              		@ sp needed
 170 0030 90BD     		pop	{r4, r7, pc}
 171              		.cfi_endproc
 172              	.LFE36:
 173              		.size	setSec, .-setSec
 174 0032 C046     		.section	.text.getSec,"ax",%progbits
 175              		.align	2
 176              		.global	getSec
 177              		.code	16
 178              		.thumb_func
 179              		.type	getSec, %function
 180              	getSec:
 181              	.LFB37:
  46:RTC.c         **** uint8 getSec(){
 182              		.loc 1 46 0
ARM GAS  C:\Users\Joseph\AppData\Local\Temp\ccjrQg7j.s 			page 5


 183              		.cfi_startproc
 184 0000 80B5     		push	{r7, lr}
 185              		.cfi_def_cfa_offset 8
 186              		.cfi_offset 7, -8
 187              		.cfi_offset 14, -4
 188 0002 00AF     		add	r7, sp, #0
 189              		.cfi_def_cfa_register 7
  47:RTC.c         **** 
  48:RTC.c         ****     return decodeSec(readReg(SECONDS_REG));
 190              		.loc 1 48 0
 191 0004 0320     		mov	r0, #3
 192 0006 FFF7FEFF 		bl	readReg
 193 000a 031C     		mov	r3, r0
 194 000c 181C     		mov	r0, r3
 195 000e FFF7FEFF 		bl	decodeSec
 196 0012 031C     		mov	r3, r0
  49:RTC.c         **** }
 197              		.loc 1 49 0
 198 0014 181C     		mov	r0, r3
 199 0016 BD46     		mov	sp, r7
 200              		@ sp needed
 201 0018 80BD     		pop	{r7, pc}
 202              		.cfi_endproc
 203              	.LFE37:
 204              		.size	getSec, .-getSec
 205 001a C046     		.section	.text.setMin,"ax",%progbits
 206              		.align	2
 207              		.global	setMin
 208              		.code	16
 209              		.thumb_func
 210              		.type	setMin, %function
 211              	setMin:
 212              	.LFB38:
  50:RTC.c         **** 
  51:RTC.c         **** void setMin(uint8 minutes){
 213              		.loc 1 51 0
 214              		.cfi_startproc
 215 0000 90B5     		push	{r4, r7, lr}
 216              		.cfi_def_cfa_offset 12
 217              		.cfi_offset 4, -12
 218              		.cfi_offset 7, -8
 219              		.cfi_offset 14, -4
 220 0002 85B0     		sub	sp, sp, #20
 221              		.cfi_def_cfa_offset 32
 222 0004 00AF     		add	r7, sp, #0
 223              		.cfi_def_cfa_register 7
 224 0006 021C     		mov	r2, r0
 225 0008 FB1D     		add	r3, r7, #7
 226 000a 1A70     		strb	r2, [r3]
  52:RTC.c         **** 
  53:RTC.c         ****     uint8 minutesBCD = encodeMin(minutes);
 227              		.loc 1 53 0
 228 000c 0F23     		mov	r3, #15
 229 000e FC18     		add	r4, r7, r3
 230 0010 FB1D     		add	r3, r7, #7
 231 0012 1B78     		ldrb	r3, [r3]
 232 0014 181C     		mov	r0, r3
ARM GAS  C:\Users\Joseph\AppData\Local\Temp\ccjrQg7j.s 			page 6


 233 0016 FFF7FEFF 		bl	encodeMin
 234 001a 031C     		mov	r3, r0
 235 001c 2370     		strb	r3, [r4]
  54:RTC.c         ****     writeReg(MINUTES_REG,minutesBCD);
 236              		.loc 1 54 0
 237 001e 0F23     		mov	r3, #15
 238 0020 FB18     		add	r3, r7, r3
 239 0022 1B78     		ldrb	r3, [r3]
 240 0024 0420     		mov	r0, #4
 241 0026 191C     		mov	r1, r3
 242 0028 FFF7FEFF 		bl	writeReg
  55:RTC.c         **** 
  56:RTC.c         **** }
 243              		.loc 1 56 0
 244 002c BD46     		mov	sp, r7
 245 002e 05B0     		add	sp, sp, #20
 246              		@ sp needed
 247 0030 90BD     		pop	{r4, r7, pc}
 248              		.cfi_endproc
 249              	.LFE38:
 250              		.size	setMin, .-setMin
 251 0032 C046     		.section	.text.getMin,"ax",%progbits
 252              		.align	2
 253              		.global	getMin
 254              		.code	16
 255              		.thumb_func
 256              		.type	getMin, %function
 257              	getMin:
 258              	.LFB39:
  57:RTC.c         **** uint8 getMin(){
 259              		.loc 1 57 0
 260              		.cfi_startproc
 261 0000 80B5     		push	{r7, lr}
 262              		.cfi_def_cfa_offset 8
 263              		.cfi_offset 7, -8
 264              		.cfi_offset 14, -4
 265 0002 00AF     		add	r7, sp, #0
 266              		.cfi_def_cfa_register 7
  58:RTC.c         **** 
  59:RTC.c         ****     return decodeMin(readReg(MINUTES_REG));
 267              		.loc 1 59 0
 268 0004 0420     		mov	r0, #4
 269 0006 FFF7FEFF 		bl	readReg
 270 000a 031C     		mov	r3, r0
 271 000c 181C     		mov	r0, r3
 272 000e FFF7FEFF 		bl	decodeMin
 273 0012 031C     		mov	r3, r0
  60:RTC.c         **** 
  61:RTC.c         **** }
 274              		.loc 1 61 0
 275 0014 181C     		mov	r0, r3
 276 0016 BD46     		mov	sp, r7
 277              		@ sp needed
 278 0018 80BD     		pop	{r7, pc}
 279              		.cfi_endproc
 280              	.LFE39:
 281              		.size	getMin, .-getMin
ARM GAS  C:\Users\Joseph\AppData\Local\Temp\ccjrQg7j.s 			page 7


 282 001a C046     		.section	.text.setHours,"ax",%progbits
 283              		.align	2
 284              		.global	setHours
 285              		.code	16
 286              		.thumb_func
 287              		.type	setHours, %function
 288              	setHours:
 289              	.LFB40:
  62:RTC.c         **** 
  63:RTC.c         **** void setHours(uint8 hour){
 290              		.loc 1 63 0
 291              		.cfi_startproc
 292 0000 90B5     		push	{r4, r7, lr}
 293              		.cfi_def_cfa_offset 12
 294              		.cfi_offset 4, -12
 295              		.cfi_offset 7, -8
 296              		.cfi_offset 14, -4
 297 0002 85B0     		sub	sp, sp, #20
 298              		.cfi_def_cfa_offset 32
 299 0004 00AF     		add	r7, sp, #0
 300              		.cfi_def_cfa_register 7
 301 0006 021C     		mov	r2, r0
 302 0008 FB1D     		add	r3, r7, #7
 303 000a 1A70     		strb	r2, [r3]
  64:RTC.c         **** 
  65:RTC.c         ****     uint8 bcdHour = encodeHours24(hour);
 304              		.loc 1 65 0
 305 000c 0F23     		mov	r3, #15
 306 000e FC18     		add	r4, r7, r3
 307 0010 FB1D     		add	r3, r7, #7
 308 0012 1B78     		ldrb	r3, [r3]
 309 0014 181C     		mov	r0, r3
 310 0016 FFF7FEFF 		bl	encodeHours24
 311 001a 031C     		mov	r3, r0
 312 001c 2370     		strb	r3, [r4]
  66:RTC.c         ****     
  67:RTC.c         ****     writeReg(HOURS_REG,bcdHour);
 313              		.loc 1 67 0
 314 001e 0F23     		mov	r3, #15
 315 0020 FB18     		add	r3, r7, r3
 316 0022 1B78     		ldrb	r3, [r3]
 317 0024 0520     		mov	r0, #5
 318 0026 191C     		mov	r1, r3
 319 0028 FFF7FEFF 		bl	writeReg
  68:RTC.c         **** 
  69:RTC.c         **** }
 320              		.loc 1 69 0
 321 002c BD46     		mov	sp, r7
 322 002e 05B0     		add	sp, sp, #20
 323              		@ sp needed
 324 0030 90BD     		pop	{r4, r7, pc}
 325              		.cfi_endproc
 326              	.LFE40:
 327              		.size	setHours, .-setHours
 328 0032 C046     		.section	.text.getHours,"ax",%progbits
 329              		.align	2
 330              		.global	getHours
ARM GAS  C:\Users\Joseph\AppData\Local\Temp\ccjrQg7j.s 			page 8


 331              		.code	16
 332              		.thumb_func
 333              		.type	getHours, %function
 334              	getHours:
 335              	.LFB41:
  70:RTC.c         **** uint8 getHours(){
 336              		.loc 1 70 0
 337              		.cfi_startproc
 338 0000 90B5     		push	{r4, r7, lr}
 339              		.cfi_def_cfa_offset 12
 340              		.cfi_offset 4, -12
 341              		.cfi_offset 7, -8
 342              		.cfi_offset 14, -4
 343 0002 83B0     		sub	sp, sp, #12
 344              		.cfi_def_cfa_offset 24
 345 0004 00AF     		add	r7, sp, #0
 346              		.cfi_def_cfa_register 7
  71:RTC.c         **** 
  72:RTC.c         ****     uint8 hourBCD = readReg(HOURS_REG);
 347              		.loc 1 72 0
 348 0006 FC1D     		add	r4, r7, #7
 349 0008 0520     		mov	r0, #5
 350 000a FFF7FEFF 		bl	readReg
 351 000e 031C     		mov	r3, r0
 352 0010 2370     		strb	r3, [r4]
  73:RTC.c         ****     
  74:RTC.c         ****     return decodeHours24(hourBCD);
 353              		.loc 1 74 0
 354 0012 FB1D     		add	r3, r7, #7
 355 0014 1B78     		ldrb	r3, [r3]
 356 0016 181C     		mov	r0, r3
 357 0018 FFF7FEFF 		bl	decodeHours24
 358 001c 031C     		mov	r3, r0
  75:RTC.c         **** 
  76:RTC.c         **** }
 359              		.loc 1 76 0
 360 001e 181C     		mov	r0, r3
 361 0020 BD46     		mov	sp, r7
 362 0022 03B0     		add	sp, sp, #12
 363              		@ sp needed
 364 0024 90BD     		pop	{r4, r7, pc}
 365              		.cfi_endproc
 366              	.LFE41:
 367              		.size	getHours, .-getHours
 368 0026 C046     		.section	.text.setDay,"ax",%progbits
 369              		.align	2
 370              		.global	setDay
 371              		.code	16
 372              		.thumb_func
 373              		.type	setDay, %function
 374              	setDay:
 375              	.LFB42:
  77:RTC.c         **** 
  78:RTC.c         **** void setDay(uint8 day){
 376              		.loc 1 78 0
 377              		.cfi_startproc
 378 0000 90B5     		push	{r4, r7, lr}
ARM GAS  C:\Users\Joseph\AppData\Local\Temp\ccjrQg7j.s 			page 9


 379              		.cfi_def_cfa_offset 12
 380              		.cfi_offset 4, -12
 381              		.cfi_offset 7, -8
 382              		.cfi_offset 14, -4
 383 0002 85B0     		sub	sp, sp, #20
 384              		.cfi_def_cfa_offset 32
 385 0004 00AF     		add	r7, sp, #0
 386              		.cfi_def_cfa_register 7
 387 0006 021C     		mov	r2, r0
 388 0008 FB1D     		add	r3, r7, #7
 389 000a 1A70     		strb	r2, [r3]
  79:RTC.c         **** 
  80:RTC.c         ****     uint8 bcdDay = encodeDays(day);
 390              		.loc 1 80 0
 391 000c 0F23     		mov	r3, #15
 392 000e FC18     		add	r4, r7, r3
 393 0010 FB1D     		add	r3, r7, #7
 394 0012 1B78     		ldrb	r3, [r3]
 395 0014 181C     		mov	r0, r3
 396 0016 FFF7FEFF 		bl	encodeDays
 397 001a 031C     		mov	r3, r0
 398 001c 2370     		strb	r3, [r4]
  81:RTC.c         ****     
  82:RTC.c         ****     writeReg(DAYS_REG,bcdDay);
 399              		.loc 1 82 0
 400 001e 0F23     		mov	r3, #15
 401 0020 FB18     		add	r3, r7, r3
 402 0022 1B78     		ldrb	r3, [r3]
 403 0024 0620     		mov	r0, #6
 404 0026 191C     		mov	r1, r3
 405 0028 FFF7FEFF 		bl	writeReg
  83:RTC.c         **** 
  84:RTC.c         **** }
 406              		.loc 1 84 0
 407 002c BD46     		mov	sp, r7
 408 002e 05B0     		add	sp, sp, #20
 409              		@ sp needed
 410 0030 90BD     		pop	{r4, r7, pc}
 411              		.cfi_endproc
 412              	.LFE42:
 413              		.size	setDay, .-setDay
 414 0032 C046     		.section	.text.getDay,"ax",%progbits
 415              		.align	2
 416              		.global	getDay
 417              		.code	16
 418              		.thumb_func
 419              		.type	getDay, %function
 420              	getDay:
 421              	.LFB43:
  85:RTC.c         **** uint8 getDay(){
 422              		.loc 1 85 0
 423              		.cfi_startproc
 424 0000 90B5     		push	{r4, r7, lr}
 425              		.cfi_def_cfa_offset 12
 426              		.cfi_offset 4, -12
 427              		.cfi_offset 7, -8
 428              		.cfi_offset 14, -4
ARM GAS  C:\Users\Joseph\AppData\Local\Temp\ccjrQg7j.s 			page 10


 429 0002 83B0     		sub	sp, sp, #12
 430              		.cfi_def_cfa_offset 24
 431 0004 00AF     		add	r7, sp, #0
 432              		.cfi_def_cfa_register 7
  86:RTC.c         **** 
  87:RTC.c         ****     uint8 dayBCD = readReg(DAYS_REG);
 433              		.loc 1 87 0
 434 0006 FC1D     		add	r4, r7, #7
 435 0008 0620     		mov	r0, #6
 436 000a FFF7FEFF 		bl	readReg
 437 000e 031C     		mov	r3, r0
 438 0010 2370     		strb	r3, [r4]
  88:RTC.c         ****     
  89:RTC.c         ****     return decodeHours24(dayBCD);
 439              		.loc 1 89 0
 440 0012 FB1D     		add	r3, r7, #7
 441 0014 1B78     		ldrb	r3, [r3]
 442 0016 181C     		mov	r0, r3
 443 0018 FFF7FEFF 		bl	decodeHours24
 444 001c 031C     		mov	r3, r0
  90:RTC.c         **** 
  91:RTC.c         **** }
 445              		.loc 1 91 0
 446 001e 181C     		mov	r0, r3
 447 0020 BD46     		mov	sp, r7
 448 0022 03B0     		add	sp, sp, #12
 449              		@ sp needed
 450 0024 90BD     		pop	{r4, r7, pc}
 451              		.cfi_endproc
 452              	.LFE43:
 453              		.size	getDay, .-getDay
 454 0026 C046     		.section	.text.setWkDay,"ax",%progbits
 455              		.align	2
 456              		.global	setWkDay
 457              		.code	16
 458              		.thumb_func
 459              		.type	setWkDay, %function
 460              	setWkDay:
 461              	.LFB44:
  92:RTC.c         **** 
  93:RTC.c         **** void setWkDay(uint8 wkday){
 462              		.loc 1 93 0
 463              		.cfi_startproc
 464 0000 90B5     		push	{r4, r7, lr}
 465              		.cfi_def_cfa_offset 12
 466              		.cfi_offset 4, -12
 467              		.cfi_offset 7, -8
 468              		.cfi_offset 14, -4
 469 0002 85B0     		sub	sp, sp, #20
 470              		.cfi_def_cfa_offset 32
 471 0004 00AF     		add	r7, sp, #0
 472              		.cfi_def_cfa_register 7
 473 0006 021C     		mov	r2, r0
 474 0008 FB1D     		add	r3, r7, #7
 475 000a 1A70     		strb	r2, [r3]
  94:RTC.c         ****     
  95:RTC.c         ****     uint8 bcdWkday = encodeWeekDay(wkday);
ARM GAS  C:\Users\Joseph\AppData\Local\Temp\ccjrQg7j.s 			page 11


 476              		.loc 1 95 0
 477 000c 0F23     		mov	r3, #15
 478 000e FC18     		add	r4, r7, r3
 479 0010 FB1D     		add	r3, r7, #7
 480 0012 1B78     		ldrb	r3, [r3]
 481 0014 181C     		mov	r0, r3
 482 0016 FFF7FEFF 		bl	encodeWeekDay
 483 001a 031C     		mov	r3, r0
 484 001c 2370     		strb	r3, [r4]
  96:RTC.c         ****     writeReg(WEEKDAY_REG, bcdWkday);
 485              		.loc 1 96 0
 486 001e 0F23     		mov	r3, #15
 487 0020 FB18     		add	r3, r7, r3
 488 0022 1B78     		ldrb	r3, [r3]
 489 0024 0720     		mov	r0, #7
 490 0026 191C     		mov	r1, r3
 491 0028 FFF7FEFF 		bl	writeReg
  97:RTC.c         ****     
  98:RTC.c         **** }
 492              		.loc 1 98 0
 493 002c BD46     		mov	sp, r7
 494 002e 05B0     		add	sp, sp, #20
 495              		@ sp needed
 496 0030 90BD     		pop	{r4, r7, pc}
 497              		.cfi_endproc
 498              	.LFE44:
 499              		.size	setWkDay, .-setWkDay
 500 0032 C046     		.section	.text.getWkDay,"ax",%progbits
 501              		.align	2
 502              		.global	getWkDay
 503              		.code	16
 504              		.thumb_func
 505              		.type	getWkDay, %function
 506              	getWkDay:
 507              	.LFB45:
  99:RTC.c         **** uint8 getWkDay(){
 508              		.loc 1 99 0
 509              		.cfi_startproc
 510 0000 90B5     		push	{r4, r7, lr}
 511              		.cfi_def_cfa_offset 12
 512              		.cfi_offset 4, -12
 513              		.cfi_offset 7, -8
 514              		.cfi_offset 14, -4
 515 0002 83B0     		sub	sp, sp, #12
 516              		.cfi_def_cfa_offset 24
 517 0004 00AF     		add	r7, sp, #0
 518              		.cfi_def_cfa_register 7
 100:RTC.c         **** 
 101:RTC.c         ****     uint8 wkDayBCD = readReg(WEEKDAY_REG);
 519              		.loc 1 101 0
 520 0006 FC1D     		add	r4, r7, #7
 521 0008 0720     		mov	r0, #7
 522 000a FFF7FEFF 		bl	readReg
 523 000e 031C     		mov	r3, r0
 524 0010 2370     		strb	r3, [r4]
 102:RTC.c         ****     
 103:RTC.c         ****     return decodeWeekDay(wkDayBCD);
ARM GAS  C:\Users\Joseph\AppData\Local\Temp\ccjrQg7j.s 			page 12


 525              		.loc 1 103 0
 526 0012 FB1D     		add	r3, r7, #7
 527 0014 1B78     		ldrb	r3, [r3]
 528 0016 181C     		mov	r0, r3
 529 0018 FFF7FEFF 		bl	decodeWeekDay
 530 001c 031C     		mov	r3, r0
 104:RTC.c         ****     
 105:RTC.c         **** }
 531              		.loc 1 105 0
 532 001e 181C     		mov	r0, r3
 533 0020 BD46     		mov	sp, r7
 534 0022 03B0     		add	sp, sp, #12
 535              		@ sp needed
 536 0024 90BD     		pop	{r4, r7, pc}
 537              		.cfi_endproc
 538              	.LFE45:
 539              		.size	getWkDay, .-getWkDay
 540 0026 C046     		.section	.text.setMonth,"ax",%progbits
 541              		.align	2
 542              		.global	setMonth
 543              		.code	16
 544              		.thumb_func
 545              		.type	setMonth, %function
 546              	setMonth:
 547              	.LFB46:
 106:RTC.c         **** 
 107:RTC.c         **** void setMonth(uint8 month){
 548              		.loc 1 107 0
 549              		.cfi_startproc
 550 0000 90B5     		push	{r4, r7, lr}
 551              		.cfi_def_cfa_offset 12
 552              		.cfi_offset 4, -12
 553              		.cfi_offset 7, -8
 554              		.cfi_offset 14, -4
 555 0002 85B0     		sub	sp, sp, #20
 556              		.cfi_def_cfa_offset 32
 557 0004 00AF     		add	r7, sp, #0
 558              		.cfi_def_cfa_register 7
 559 0006 021C     		mov	r2, r0
 560 0008 FB1D     		add	r3, r7, #7
 561 000a 1A70     		strb	r2, [r3]
 108:RTC.c         **** 
 109:RTC.c         ****     uint8 bcdMonth = encodeMonth(month);
 562              		.loc 1 109 0
 563 000c 0F23     		mov	r3, #15
 564 000e FC18     		add	r4, r7, r3
 565 0010 FB1D     		add	r3, r7, #7
 566 0012 1B78     		ldrb	r3, [r3]
 567 0014 181C     		mov	r0, r3
 568 0016 FFF7FEFF 		bl	encodeMonth
 569 001a 031C     		mov	r3, r0
 570 001c 2370     		strb	r3, [r4]
 110:RTC.c         ****     writeReg(MONTH_REG,bcdMonth);
 571              		.loc 1 110 0
 572 001e 0F23     		mov	r3, #15
 573 0020 FB18     		add	r3, r7, r3
 574 0022 1B78     		ldrb	r3, [r3]
ARM GAS  C:\Users\Joseph\AppData\Local\Temp\ccjrQg7j.s 			page 13


 575 0024 0820     		mov	r0, #8
 576 0026 191C     		mov	r1, r3
 577 0028 FFF7FEFF 		bl	writeReg
 111:RTC.c         ****     
 112:RTC.c         **** }
 578              		.loc 1 112 0
 579 002c BD46     		mov	sp, r7
 580 002e 05B0     		add	sp, sp, #20
 581              		@ sp needed
 582 0030 90BD     		pop	{r4, r7, pc}
 583              		.cfi_endproc
 584              	.LFE46:
 585              		.size	setMonth, .-setMonth
 586 0032 C046     		.section	.text.getMonth,"ax",%progbits
 587              		.align	2
 588              		.global	getMonth
 589              		.code	16
 590              		.thumb_func
 591              		.type	getMonth, %function
 592              	getMonth:
 593              	.LFB47:
 113:RTC.c         **** uint8 getMonth(){
 594              		.loc 1 113 0
 595              		.cfi_startproc
 596 0000 90B5     		push	{r4, r7, lr}
 597              		.cfi_def_cfa_offset 12
 598              		.cfi_offset 4, -12
 599              		.cfi_offset 7, -8
 600              		.cfi_offset 14, -4
 601 0002 83B0     		sub	sp, sp, #12
 602              		.cfi_def_cfa_offset 24
 603 0004 00AF     		add	r7, sp, #0
 604              		.cfi_def_cfa_register 7
 114:RTC.c         **** 
 115:RTC.c         ****     uint8 monthBCD = readReg(MONTH_REG);
 605              		.loc 1 115 0
 606 0006 FC1D     		add	r4, r7, #7
 607 0008 0820     		mov	r0, #8
 608 000a FFF7FEFF 		bl	readReg
 609 000e 031C     		mov	r3, r0
 610 0010 2370     		strb	r3, [r4]
 116:RTC.c         ****     
 117:RTC.c         ****     return decodeMonth(monthBCD);
 611              		.loc 1 117 0
 612 0012 FB1D     		add	r3, r7, #7
 613 0014 1B78     		ldrb	r3, [r3]
 614 0016 181C     		mov	r0, r3
 615 0018 FFF7FEFF 		bl	decodeMonth
 616 001c 031C     		mov	r3, r0
 118:RTC.c         **** 
 119:RTC.c         **** }
 617              		.loc 1 119 0
 618 001e 181C     		mov	r0, r3
 619 0020 BD46     		mov	sp, r7
 620 0022 03B0     		add	sp, sp, #12
 621              		@ sp needed
 622 0024 90BD     		pop	{r4, r7, pc}
ARM GAS  C:\Users\Joseph\AppData\Local\Temp\ccjrQg7j.s 			page 14


 623              		.cfi_endproc
 624              	.LFE47:
 625              		.size	getMonth, .-getMonth
 626 0026 C046     		.section	.text.setYear,"ax",%progbits
 627              		.align	2
 628              		.global	setYear
 629              		.code	16
 630              		.thumb_func
 631              		.type	setYear, %function
 632              	setYear:
 633              	.LFB48:
 120:RTC.c         **** 
 121:RTC.c         **** void setYear(uint8 year){
 634              		.loc 1 121 0
 635              		.cfi_startproc
 636 0000 90B5     		push	{r4, r7, lr}
 637              		.cfi_def_cfa_offset 12
 638              		.cfi_offset 4, -12
 639              		.cfi_offset 7, -8
 640              		.cfi_offset 14, -4
 641 0002 85B0     		sub	sp, sp, #20
 642              		.cfi_def_cfa_offset 32
 643 0004 00AF     		add	r7, sp, #0
 644              		.cfi_def_cfa_register 7
 645 0006 021C     		mov	r2, r0
 646 0008 FB1D     		add	r3, r7, #7
 647 000a 1A70     		strb	r2, [r3]
 122:RTC.c         **** 
 123:RTC.c         ****     uint8 bcdYear = encodeYear(year);
 648              		.loc 1 123 0
 649 000c 0F23     		mov	r3, #15
 650 000e FC18     		add	r4, r7, r3
 651 0010 FB1D     		add	r3, r7, #7
 652 0012 1B78     		ldrb	r3, [r3]
 653 0014 181C     		mov	r0, r3
 654 0016 FFF7FEFF 		bl	encodeYear
 655 001a 031C     		mov	r3, r0
 656 001c 2370     		strb	r3, [r4]
 124:RTC.c         ****     
 125:RTC.c         ****     writeReg(YEAR_REG,bcdYear);
 657              		.loc 1 125 0
 658 001e 0F23     		mov	r3, #15
 659 0020 FB18     		add	r3, r7, r3
 660 0022 1B78     		ldrb	r3, [r3]
 661 0024 0920     		mov	r0, #9
 662 0026 191C     		mov	r1, r3
 663 0028 FFF7FEFF 		bl	writeReg
 126:RTC.c         **** 
 127:RTC.c         **** }
 664              		.loc 1 127 0
 665 002c BD46     		mov	sp, r7
 666 002e 05B0     		add	sp, sp, #20
 667              		@ sp needed
 668 0030 90BD     		pop	{r4, r7, pc}
 669              		.cfi_endproc
 670              	.LFE48:
 671              		.size	setYear, .-setYear
ARM GAS  C:\Users\Joseph\AppData\Local\Temp\ccjrQg7j.s 			page 15


 672 0032 C046     		.section	.text.getYear,"ax",%progbits
 673              		.align	2
 674              		.global	getYear
 675              		.code	16
 676              		.thumb_func
 677              		.type	getYear, %function
 678              	getYear:
 679              	.LFB49:
 128:RTC.c         **** uint8 getYear(){
 680              		.loc 1 128 0
 681              		.cfi_startproc
 682 0000 90B5     		push	{r4, r7, lr}
 683              		.cfi_def_cfa_offset 12
 684              		.cfi_offset 4, -12
 685              		.cfi_offset 7, -8
 686              		.cfi_offset 14, -4
 687 0002 83B0     		sub	sp, sp, #12
 688              		.cfi_def_cfa_offset 24
 689 0004 00AF     		add	r7, sp, #0
 690              		.cfi_def_cfa_register 7
 129:RTC.c         **** 
 130:RTC.c         ****     uint8 yearBCD = readReg(YEAR_REG);
 691              		.loc 1 130 0
 692 0006 FC1D     		add	r4, r7, #7
 693 0008 0920     		mov	r0, #9
 694 000a FFF7FEFF 		bl	readReg
 695 000e 031C     		mov	r3, r0
 696 0010 2370     		strb	r3, [r4]
 131:RTC.c         ****     
 132:RTC.c         ****     return decodeYear(yearBCD);
 697              		.loc 1 132 0
 698 0012 FB1D     		add	r3, r7, #7
 699 0014 1B78     		ldrb	r3, [r3]
 700 0016 181C     		mov	r0, r3
 701 0018 FFF7FEFF 		bl	decodeYear
 702 001c 031C     		mov	r3, r0
 133:RTC.c         **** 
 134:RTC.c         **** }
 703              		.loc 1 134 0
 704 001e 181C     		mov	r0, r3
 705 0020 BD46     		mov	sp, r7
 706 0022 03B0     		add	sp, sp, #12
 707              		@ sp needed
 708 0024 90BD     		pop	{r4, r7, pc}
 709              		.cfi_endproc
 710              	.LFE49:
 711              		.size	getYear, .-getYear
 712 0026 C046     		.section	.text.getTime,"ax",%progbits
 713              		.align	2
 714              		.global	getTime
 715              		.code	16
 716              		.thumb_func
 717              		.type	getTime, %function
 718              	getTime:
 719              	.LFB50:
 135:RTC.c         **** 
 136:RTC.c         **** void getTime(struct time *currentTime){
ARM GAS  C:\Users\Joseph\AppData\Local\Temp\ccjrQg7j.s 			page 16


 720              		.loc 1 136 0
 721              		.cfi_startproc
 722 0000 80B5     		push	{r7, lr}
 723              		.cfi_def_cfa_offset 8
 724              		.cfi_offset 7, -8
 725              		.cfi_offset 14, -4
 726 0002 82B0     		sub	sp, sp, #8
 727              		.cfi_def_cfa_offset 16
 728 0004 00AF     		add	r7, sp, #0
 729              		.cfi_def_cfa_register 7
 730 0006 7860     		str	r0, [r7, #4]
 137:RTC.c         ****     
 138:RTC.c         ****     
 139:RTC.c         ****     currentTime->year    =   getYear();
 731              		.loc 1 139 0
 732 0008 FFF7FEFF 		bl	getYear
 733 000c 031C     		mov	r3, r0
 734 000e 1A1C     		mov	r2, r3
 735 0010 7B68     		ldr	r3, [r7, #4]
 736 0012 9A71     		strb	r2, [r3, #6]
 140:RTC.c         ****     currentTime->month   =   getMonth();   
 737              		.loc 1 140 0
 738 0014 FFF7FEFF 		bl	getMonth
 739 0018 031C     		mov	r3, r0
 740 001a 1A1C     		mov	r2, r3
 741 001c 7B68     		ldr	r3, [r7, #4]
 742 001e 5A71     		strb	r2, [r3, #5]
 141:RTC.c         ****     currentTime->day     =   getDay();
 743              		.loc 1 141 0
 744 0020 FFF7FEFF 		bl	getDay
 745 0024 031C     		mov	r3, r0
 746 0026 1A1C     		mov	r2, r3
 747 0028 7B68     		ldr	r3, [r7, #4]
 748 002a DA70     		strb	r2, [r3, #3]
 142:RTC.c         ****     currentTime->weekday =   getWkDay();
 749              		.loc 1 142 0
 750 002c FFF7FEFF 		bl	getWkDay
 751 0030 031C     		mov	r3, r0
 752 0032 1A1C     		mov	r2, r3
 753 0034 7B68     		ldr	r3, [r7, #4]
 754 0036 1A71     		strb	r2, [r3, #4]
 143:RTC.c         ****     currentTime->hour    =   getHours();
 755              		.loc 1 143 0
 756 0038 FFF7FEFF 		bl	getHours
 757 003c 031C     		mov	r3, r0
 758 003e 1A1C     		mov	r2, r3
 759 0040 7B68     		ldr	r3, [r7, #4]
 760 0042 9A70     		strb	r2, [r3, #2]
 144:RTC.c         ****     currentTime->minute  =   getMin();
 761              		.loc 1 144 0
 762 0044 FFF7FEFF 		bl	getMin
 763 0048 031C     		mov	r3, r0
 764 004a 1A1C     		mov	r2, r3
 765 004c 7B68     		ldr	r3, [r7, #4]
 766 004e 5A70     		strb	r2, [r3, #1]
 145:RTC.c         ****     currentTime->second  =   getSec();
 767              		.loc 1 145 0
ARM GAS  C:\Users\Joseph\AppData\Local\Temp\ccjrQg7j.s 			page 17


 768 0050 FFF7FEFF 		bl	getSec
 769 0054 031C     		mov	r3, r0
 770 0056 1A1C     		mov	r2, r3
 771 0058 7B68     		ldr	r3, [r7, #4]
 772 005a 1A70     		strb	r2, [r3]
 146:RTC.c         ****    
 147:RTC.c         **** 
 148:RTC.c         **** }
 773              		.loc 1 148 0
 774 005c BD46     		mov	sp, r7
 775 005e 02B0     		add	sp, sp, #8
 776              		@ sp needed
 777 0060 80BD     		pop	{r7, pc}
 778              		.cfi_endproc
 779              	.LFE50:
 780              		.size	getTime, .-getTime
 781 0062 C046     		.section	.text.setTime,"ax",%progbits
 782              		.align	2
 783              		.global	setTime
 784              		.code	16
 785              		.thumb_func
 786              		.type	setTime, %function
 787              	setTime:
 788              	.LFB51:
 149:RTC.c         **** 
 150:RTC.c         **** void setTime(struct time *currentTime){
 789              		.loc 1 150 0
 790              		.cfi_startproc
 791 0000 80B5     		push	{r7, lr}
 792              		.cfi_def_cfa_offset 8
 793              		.cfi_offset 7, -8
 794              		.cfi_offset 14, -4
 795 0002 82B0     		sub	sp, sp, #8
 796              		.cfi_def_cfa_offset 16
 797 0004 00AF     		add	r7, sp, #0
 798              		.cfi_def_cfa_register 7
 799 0006 7860     		str	r0, [r7, #4]
 151:RTC.c         ****     
 152:RTC.c         **** 
 153:RTC.c         **** setSec(currentTime->second);   
 800              		.loc 1 153 0
 801 0008 7B68     		ldr	r3, [r7, #4]
 802 000a 1B78     		ldrb	r3, [r3]
 803 000c 181C     		mov	r0, r3
 804 000e FFF7FEFF 		bl	setSec
 154:RTC.c         **** setMin(currentTime->minute);
 805              		.loc 1 154 0
 806 0012 7B68     		ldr	r3, [r7, #4]
 807 0014 5B78     		ldrb	r3, [r3, #1]
 808 0016 181C     		mov	r0, r3
 809 0018 FFF7FEFF 		bl	setMin
 155:RTC.c         **** setHours(currentTime->hour);
 810              		.loc 1 155 0
 811 001c 7B68     		ldr	r3, [r7, #4]
 812 001e 9B78     		ldrb	r3, [r3, #2]
 813 0020 181C     		mov	r0, r3
 814 0022 FFF7FEFF 		bl	setHours
ARM GAS  C:\Users\Joseph\AppData\Local\Temp\ccjrQg7j.s 			page 18


 156:RTC.c         **** setWkDay(currentTime->weekday);
 815              		.loc 1 156 0
 816 0026 7B68     		ldr	r3, [r7, #4]
 817 0028 1B79     		ldrb	r3, [r3, #4]
 818 002a 181C     		mov	r0, r3
 819 002c FFF7FEFF 		bl	setWkDay
 157:RTC.c         **** setDay(currentTime->day);
 820              		.loc 1 157 0
 821 0030 7B68     		ldr	r3, [r7, #4]
 822 0032 DB78     		ldrb	r3, [r3, #3]
 823 0034 181C     		mov	r0, r3
 824 0036 FFF7FEFF 		bl	setDay
 158:RTC.c         **** setMonth(currentTime->month);  
 825              		.loc 1 158 0
 826 003a 7B68     		ldr	r3, [r7, #4]
 827 003c 5B79     		ldrb	r3, [r3, #5]
 828 003e 181C     		mov	r0, r3
 829 0040 FFF7FEFF 		bl	setMonth
 159:RTC.c         **** setYear(currentTime->year); 
 830              		.loc 1 159 0
 831 0044 7B68     		ldr	r3, [r7, #4]
 832 0046 9B79     		ldrb	r3, [r3, #6]
 833 0048 181C     		mov	r0, r3
 834 004a FFF7FEFF 		bl	setYear
 160:RTC.c         **** 
 161:RTC.c         **** }
 835              		.loc 1 161 0
 836 004e BD46     		mov	sp, r7
 837 0050 02B0     		add	sp, sp, #8
 838              		@ sp needed
 839 0052 80BD     		pop	{r7, pc}
 840              		.cfi_endproc
 841              	.LFE51:
 842              		.size	setTime, .-setTime
 843              		.section	.text.createAlarm,"ax",%progbits
 844              		.align	2
 845              		.global	createAlarm
 846              		.code	16
 847              		.thumb_func
 848              		.type	createAlarm, %function
 849              	createAlarm:
 850              	.LFB52:
 162:RTC.c         **** 
 163:RTC.c         **** void createAlarm(struct time *alarm, uint8 weekDay, uint8 hour, uint8 minute){
 851              		.loc 1 163 0
 852              		.cfi_startproc
 853 0000 90B5     		push	{r4, r7, lr}
 854              		.cfi_def_cfa_offset 12
 855              		.cfi_offset 4, -12
 856              		.cfi_offset 7, -8
 857              		.cfi_offset 14, -4
 858 0002 83B0     		sub	sp, sp, #12
 859              		.cfi_def_cfa_offset 24
 860 0004 00AF     		add	r7, sp, #0
 861              		.cfi_def_cfa_register 7
 862 0006 7860     		str	r0, [r7, #4]
 863 0008 0C1C     		mov	r4, r1
ARM GAS  C:\Users\Joseph\AppData\Local\Temp\ccjrQg7j.s 			page 19


 864 000a 101C     		mov	r0, r2
 865 000c 191C     		mov	r1, r3
 866 000e FB1C     		add	r3, r7, #3
 867 0010 221C     		add	r2, r4, #0
 868 0012 1A70     		strb	r2, [r3]
 869 0014 BB1C     		add	r3, r7, #2
 870 0016 021C     		add	r2, r0, #0
 871 0018 1A70     		strb	r2, [r3]
 872 001a 7B1C     		add	r3, r7, #1
 873 001c 0A1C     		add	r2, r1, #0
 874 001e 1A70     		strb	r2, [r3]
 164:RTC.c         **** 
 165:RTC.c         **** 
 166:RTC.c         ****     alarm->year = 0xFF;
 875              		.loc 1 166 0
 876 0020 7B68     		ldr	r3, [r7, #4]
 877 0022 FF22     		mov	r2, #255
 878 0024 9A71     		strb	r2, [r3, #6]
 167:RTC.c         ****     alarm->month = 0xFF;
 879              		.loc 1 167 0
 880 0026 7B68     		ldr	r3, [r7, #4]
 881 0028 FF22     		mov	r2, #255
 882 002a 5A71     		strb	r2, [r3, #5]
 168:RTC.c         ****     alarm->day =0xFF;
 883              		.loc 1 168 0
 884 002c 7B68     		ldr	r3, [r7, #4]
 885 002e FF22     		mov	r2, #255
 886 0030 DA70     		strb	r2, [r3, #3]
 169:RTC.c         ****     alarm->weekday = weekDay;
 887              		.loc 1 169 0
 888 0032 7B68     		ldr	r3, [r7, #4]
 889 0034 FA1C     		add	r2, r7, #3
 890 0036 1278     		ldrb	r2, [r2]
 891 0038 1A71     		strb	r2, [r3, #4]
 170:RTC.c         ****     alarm->hour = hour;
 892              		.loc 1 170 0
 893 003a 7B68     		ldr	r3, [r7, #4]
 894 003c BA1C     		add	r2, r7, #2
 895 003e 1278     		ldrb	r2, [r2]
 896 0040 9A70     		strb	r2, [r3, #2]
 171:RTC.c         ****     alarm->minute = minute;
 897              		.loc 1 171 0
 898 0042 7B68     		ldr	r3, [r7, #4]
 899 0044 7A1C     		add	r2, r7, #1
 900 0046 1278     		ldrb	r2, [r2]
 901 0048 5A70     		strb	r2, [r3, #1]
 172:RTC.c         ****     alarm->second = 0;
 902              		.loc 1 172 0
 903 004a 7B68     		ldr	r3, [r7, #4]
 904 004c 0022     		mov	r2, #0
 905 004e 1A70     		strb	r2, [r3]
 173:RTC.c         **** 
 174:RTC.c         **** }
 906              		.loc 1 174 0
 907 0050 BD46     		mov	sp, r7
 908 0052 03B0     		add	sp, sp, #12
 909              		@ sp needed
ARM GAS  C:\Users\Joseph\AppData\Local\Temp\ccjrQg7j.s 			page 20


 910 0054 90BD     		pop	{r4, r7, pc}
 911              		.cfi_endproc
 912              	.LFE52:
 913              		.size	createAlarm, .-createAlarm
 914 0056 C046     		.section	.text.createAlarmTEST,"ax",%progbits
 915              		.align	2
 916              		.global	createAlarmTEST
 917              		.code	16
 918              		.thumb_func
 919              		.type	createAlarmTEST, %function
 920              	createAlarmTEST:
 921              	.LFB53:
 175:RTC.c         **** 
 176:RTC.c         **** void createAlarmTEST(struct time *alarm,uint8 minute, uint8 second){
 922              		.loc 1 176 0
 923              		.cfi_startproc
 924 0000 80B5     		push	{r7, lr}
 925              		.cfi_def_cfa_offset 8
 926              		.cfi_offset 7, -8
 927              		.cfi_offset 14, -4
 928 0002 82B0     		sub	sp, sp, #8
 929              		.cfi_def_cfa_offset 16
 930 0004 00AF     		add	r7, sp, #0
 931              		.cfi_def_cfa_register 7
 932 0006 7860     		str	r0, [r7, #4]
 933 0008 081C     		mov	r0, r1
 934 000a 111C     		mov	r1, r2
 935 000c FB1C     		add	r3, r7, #3
 936 000e 021C     		add	r2, r0, #0
 937 0010 1A70     		strb	r2, [r3]
 938 0012 BB1C     		add	r3, r7, #2
 939 0014 0A1C     		add	r2, r1, #0
 940 0016 1A70     		strb	r2, [r3]
 177:RTC.c         **** 
 178:RTC.c         ****     alarm->year = 0xFF;
 941              		.loc 1 178 0
 942 0018 7B68     		ldr	r3, [r7, #4]
 943 001a FF22     		mov	r2, #255
 944 001c 9A71     		strb	r2, [r3, #6]
 179:RTC.c         ****     alarm->month = 0xFF;
 945              		.loc 1 179 0
 946 001e 7B68     		ldr	r3, [r7, #4]
 947 0020 FF22     		mov	r2, #255
 948 0022 5A71     		strb	r2, [r3, #5]
 180:RTC.c         ****     alarm->day =0xFF;
 949              		.loc 1 180 0
 950 0024 7B68     		ldr	r3, [r7, #4]
 951 0026 FF22     		mov	r2, #255
 952 0028 DA70     		strb	r2, [r3, #3]
 181:RTC.c         ****     alarm->weekday = 0xFF;
 953              		.loc 1 181 0
 954 002a 7B68     		ldr	r3, [r7, #4]
 955 002c FF22     		mov	r2, #255
 956 002e 1A71     		strb	r2, [r3, #4]
 182:RTC.c         ****     alarm->hour = 0xFF;
 957              		.loc 1 182 0
 958 0030 7B68     		ldr	r3, [r7, #4]
ARM GAS  C:\Users\Joseph\AppData\Local\Temp\ccjrQg7j.s 			page 21


 959 0032 FF22     		mov	r2, #255
 960 0034 9A70     		strb	r2, [r3, #2]
 183:RTC.c         ****     alarm->minute = minute;
 961              		.loc 1 183 0
 962 0036 7B68     		ldr	r3, [r7, #4]
 963 0038 FA1C     		add	r2, r7, #3
 964 003a 1278     		ldrb	r2, [r2]
 965 003c 5A70     		strb	r2, [r3, #1]
 184:RTC.c         ****     alarm->second = second;
 966              		.loc 1 184 0
 967 003e 7B68     		ldr	r3, [r7, #4]
 968 0040 BA1C     		add	r2, r7, #2
 969 0042 1278     		ldrb	r2, [r2]
 970 0044 1A70     		strb	r2, [r3]
 185:RTC.c         **** }
 971              		.loc 1 185 0
 972 0046 BD46     		mov	sp, r7
 973 0048 02B0     		add	sp, sp, #8
 974              		@ sp needed
 975 004a 80BD     		pop	{r7, pc}
 976              		.cfi_endproc
 977              	.LFE53:
 978              		.size	createAlarmTEST, .-createAlarmTEST
 979              		.section	.text.checkAlarm,"ax",%progbits
 980              		.align	2
 981              		.global	checkAlarm
 982              		.code	16
 983              		.thumb_func
 984              		.type	checkAlarm, %function
 985              	checkAlarm:
 986              	.LFB54:
 186:RTC.c         **** 
 187:RTC.c         **** char checkAlarm(struct time *currentTime, struct time *alarmTime){
 987              		.loc 1 187 0
 988              		.cfi_startproc
 989 0000 80B5     		push	{r7, lr}
 990              		.cfi_def_cfa_offset 8
 991              		.cfi_offset 7, -8
 992              		.cfi_offset 14, -4
 993 0002 84B0     		sub	sp, sp, #16
 994              		.cfi_def_cfa_offset 24
 995 0004 00AF     		add	r7, sp, #0
 996              		.cfi_def_cfa_register 7
 997 0006 7860     		str	r0, [r7, #4]
 998 0008 3960     		str	r1, [r7]
 188:RTC.c         **** /* This function checks if the current time is equal to a time alarm.
 189:RTC.c         ****  * If the times are equal the function returns 0. If a field of time
 190:RTC.c         ****  * is to be ignored, the alarmTime should have 0xFF as that field.
 191:RTC.c         ****  *  
 192:RTC.c         ****  */
 193:RTC.c         ****     char result = 0;
 999              		.loc 1 193 0
 1000 000a 0F23     		mov	r3, #15
 1001 000c FB18     		add	r3, r7, r3
 1002 000e 0022     		mov	r2, #0
 1003 0010 1A70     		strb	r2, [r3]
 194:RTC.c         ****     
ARM GAS  C:\Users\Joseph\AppData\Local\Temp\ccjrQg7j.s 			page 22


 195:RTC.c         ****     // Check that each field of time is equal and not 0xFF.
 196:RTC.c         ****     // If a field is 0xFF, then the if statment will always be false and not execute
 197:RTC.c         ****     // effectivley rendering it ignored. If a field is not 0xFF, then only the relation to current
 198:RTC.c         ****     // matters.
 199:RTC.c         ****     if((!(currentTime->year == alarmTime->year)) && (!(alarmTime->year == 0xFF))){
 1004              		.loc 1 199 0
 1005 0012 7B68     		ldr	r3, [r7, #4]
 1006 0014 9A79     		ldrb	r2, [r3, #6]
 1007 0016 3B68     		ldr	r3, [r7]
 1008 0018 9B79     		ldrb	r3, [r3, #6]
 1009 001a 9A42     		cmp	r2, r3
 1010 001c 0AD0     		beq	.L31
 1011              		.loc 1 199 0 is_stmt 0 discriminator 1
 1012 001e 3B68     		ldr	r3, [r7]
 1013 0020 9B79     		ldrb	r3, [r3, #6]
 1014 0022 FF2B     		cmp	r3, #255
 1015 0024 06D0     		beq	.L31
 200:RTC.c         ****         result++ ;
 1016              		.loc 1 200 0 is_stmt 1
 1017 0026 0F23     		mov	r3, #15
 1018 0028 FB18     		add	r3, r7, r3
 1019 002a 1A78     		ldrb	r2, [r3]
 1020 002c 0F23     		mov	r3, #15
 1021 002e FB18     		add	r3, r7, r3
 1022 0030 0132     		add	r2, r2, #1
 1023 0032 1A70     		strb	r2, [r3]
 1024              	.L31:
 201:RTC.c         ****     }
 202:RTC.c         ****     if((!(currentTime->month == alarmTime->month)) && (!(alarmTime->month == 0xFF))){
 1025              		.loc 1 202 0
 1026 0034 7B68     		ldr	r3, [r7, #4]
 1027 0036 5A79     		ldrb	r2, [r3, #5]
 1028 0038 3B68     		ldr	r3, [r7]
 1029 003a 5B79     		ldrb	r3, [r3, #5]
 1030 003c 9A42     		cmp	r2, r3
 1031 003e 0AD0     		beq	.L32
 1032              		.loc 1 202 0 is_stmt 0 discriminator 1
 1033 0040 3B68     		ldr	r3, [r7]
 1034 0042 5B79     		ldrb	r3, [r3, #5]
 1035 0044 FF2B     		cmp	r3, #255
 1036 0046 06D0     		beq	.L32
 203:RTC.c         ****         result++ ;
 1037              		.loc 1 203 0 is_stmt 1
 1038 0048 0F23     		mov	r3, #15
 1039 004a FB18     		add	r3, r7, r3
 1040 004c 1A78     		ldrb	r2, [r3]
 1041 004e 0F23     		mov	r3, #15
 1042 0050 FB18     		add	r3, r7, r3
 1043 0052 0132     		add	r2, r2, #1
 1044 0054 1A70     		strb	r2, [r3]
 1045              	.L32:
 204:RTC.c         ****     }
 205:RTC.c         ****     if((!(currentTime->day == alarmTime->day)) && (!(alarmTime->day == 0xFF))){
 1046              		.loc 1 205 0
 1047 0056 7B68     		ldr	r3, [r7, #4]
 1048 0058 DA78     		ldrb	r2, [r3, #3]
 1049 005a 3B68     		ldr	r3, [r7]
ARM GAS  C:\Users\Joseph\AppData\Local\Temp\ccjrQg7j.s 			page 23


 1050 005c DB78     		ldrb	r3, [r3, #3]
 1051 005e 9A42     		cmp	r2, r3
 1052 0060 0AD0     		beq	.L33
 1053              		.loc 1 205 0 is_stmt 0 discriminator 1
 1054 0062 3B68     		ldr	r3, [r7]
 1055 0064 DB78     		ldrb	r3, [r3, #3]
 1056 0066 FF2B     		cmp	r3, #255
 1057 0068 06D0     		beq	.L33
 206:RTC.c         ****         result++ ;
 1058              		.loc 1 206 0 is_stmt 1
 1059 006a 0F23     		mov	r3, #15
 1060 006c FB18     		add	r3, r7, r3
 1061 006e 1A78     		ldrb	r2, [r3]
 1062 0070 0F23     		mov	r3, #15
 1063 0072 FB18     		add	r3, r7, r3
 1064 0074 0132     		add	r2, r2, #1
 1065 0076 1A70     		strb	r2, [r3]
 1066              	.L33:
 207:RTC.c         ****     }
 208:RTC.c         ****     if((!(currentTime->weekday == alarmTime->weekday)) && (!(alarmTime->weekday == 0xFF))){
 1067              		.loc 1 208 0
 1068 0078 7B68     		ldr	r3, [r7, #4]
 1069 007a 1A79     		ldrb	r2, [r3, #4]
 1070 007c 3B68     		ldr	r3, [r7]
 1071 007e 1B79     		ldrb	r3, [r3, #4]
 1072 0080 9A42     		cmp	r2, r3
 1073 0082 0AD0     		beq	.L34
 1074              		.loc 1 208 0 is_stmt 0 discriminator 1
 1075 0084 3B68     		ldr	r3, [r7]
 1076 0086 1B79     		ldrb	r3, [r3, #4]
 1077 0088 FF2B     		cmp	r3, #255
 1078 008a 06D0     		beq	.L34
 209:RTC.c         ****         result++ ;
 1079              		.loc 1 209 0 is_stmt 1
 1080 008c 0F23     		mov	r3, #15
 1081 008e FB18     		add	r3, r7, r3
 1082 0090 1A78     		ldrb	r2, [r3]
 1083 0092 0F23     		mov	r3, #15
 1084 0094 FB18     		add	r3, r7, r3
 1085 0096 0132     		add	r2, r2, #1
 1086 0098 1A70     		strb	r2, [r3]
 1087              	.L34:
 210:RTC.c         ****     }
 211:RTC.c         ****     if((!(currentTime->hour == alarmTime->hour)) && (!(alarmTime->hour == 0xFF))){
 1088              		.loc 1 211 0
 1089 009a 7B68     		ldr	r3, [r7, #4]
 1090 009c 9A78     		ldrb	r2, [r3, #2]
 1091 009e 3B68     		ldr	r3, [r7]
 1092 00a0 9B78     		ldrb	r3, [r3, #2]
 1093 00a2 9A42     		cmp	r2, r3
 1094 00a4 0AD0     		beq	.L35
 1095              		.loc 1 211 0 is_stmt 0 discriminator 1
 1096 00a6 3B68     		ldr	r3, [r7]
 1097 00a8 9B78     		ldrb	r3, [r3, #2]
 1098 00aa FF2B     		cmp	r3, #255
 1099 00ac 06D0     		beq	.L35
 212:RTC.c         ****         result++ ;
ARM GAS  C:\Users\Joseph\AppData\Local\Temp\ccjrQg7j.s 			page 24


 1100              		.loc 1 212 0 is_stmt 1
 1101 00ae 0F23     		mov	r3, #15
 1102 00b0 FB18     		add	r3, r7, r3
 1103 00b2 1A78     		ldrb	r2, [r3]
 1104 00b4 0F23     		mov	r3, #15
 1105 00b6 FB18     		add	r3, r7, r3
 1106 00b8 0132     		add	r2, r2, #1
 1107 00ba 1A70     		strb	r2, [r3]
 1108              	.L35:
 213:RTC.c         ****     }
 214:RTC.c         ****     if((!(currentTime->minute == alarmTime->minute)) && ( !(alarmTime->minute == 0xFF))){
 1109              		.loc 1 214 0
 1110 00bc 7B68     		ldr	r3, [r7, #4]
 1111 00be 5A78     		ldrb	r2, [r3, #1]
 1112 00c0 3B68     		ldr	r3, [r7]
 1113 00c2 5B78     		ldrb	r3, [r3, #1]
 1114 00c4 9A42     		cmp	r2, r3
 1115 00c6 0AD0     		beq	.L36
 1116              		.loc 1 214 0 is_stmt 0 discriminator 1
 1117 00c8 3B68     		ldr	r3, [r7]
 1118 00ca 5B78     		ldrb	r3, [r3, #1]
 1119 00cc FF2B     		cmp	r3, #255
 1120 00ce 06D0     		beq	.L36
 215:RTC.c         ****         result++ ;
 1121              		.loc 1 215 0 is_stmt 1
 1122 00d0 0F23     		mov	r3, #15
 1123 00d2 FB18     		add	r3, r7, r3
 1124 00d4 1A78     		ldrb	r2, [r3]
 1125 00d6 0F23     		mov	r3, #15
 1126 00d8 FB18     		add	r3, r7, r3
 1127 00da 0132     		add	r2, r2, #1
 1128 00dc 1A70     		strb	r2, [r3]
 1129              	.L36:
 216:RTC.c         ****     }
 217:RTC.c         ****     if((!(currentTime->second == alarmTime->second)) && (!(alarmTime->second == 0xFF))){
 1130              		.loc 1 217 0
 1131 00de 7B68     		ldr	r3, [r7, #4]
 1132 00e0 1A78     		ldrb	r2, [r3]
 1133 00e2 3B68     		ldr	r3, [r7]
 1134 00e4 1B78     		ldrb	r3, [r3]
 1135 00e6 9A42     		cmp	r2, r3
 1136 00e8 0AD0     		beq	.L37
 1137              		.loc 1 217 0 is_stmt 0 discriminator 1
 1138 00ea 3B68     		ldr	r3, [r7]
 1139 00ec 1B78     		ldrb	r3, [r3]
 1140 00ee FF2B     		cmp	r3, #255
 1141 00f0 06D0     		beq	.L37
 218:RTC.c         ****         result++ ;
 1142              		.loc 1 218 0 is_stmt 1
 1143 00f2 0F23     		mov	r3, #15
 1144 00f4 FB18     		add	r3, r7, r3
 1145 00f6 1A78     		ldrb	r2, [r3]
 1146 00f8 0F23     		mov	r3, #15
 1147 00fa FB18     		add	r3, r7, r3
 1148 00fc 0132     		add	r2, r2, #1
 1149 00fe 1A70     		strb	r2, [r3]
 1150              	.L37:
ARM GAS  C:\Users\Joseph\AppData\Local\Temp\ccjrQg7j.s 			page 25


 219:RTC.c         ****     }
 220:RTC.c         ****     
 221:RTC.c         ****     
 222:RTC.c         **** 
 223:RTC.c         ****     return result;
 1151              		.loc 1 223 0
 1152 0100 0F23     		mov	r3, #15
 1153 0102 FB18     		add	r3, r7, r3
 1154 0104 1B78     		ldrb	r3, [r3]
 224:RTC.c         **** }
 1155              		.loc 1 224 0
 1156 0106 181C     		mov	r0, r3
 1157 0108 BD46     		mov	sp, r7
 1158 010a 04B0     		add	sp, sp, #16
 1159              		@ sp needed
 1160 010c 80BD     		pop	{r7, pc}
 1161              		.cfi_endproc
 1162              	.LFE54:
 1163              		.size	checkAlarm, .-checkAlarm
 1164 010e C046     		.section	.text.softReset,"ax",%progbits
 1165              		.align	2
 1166              		.global	softReset
 1167              		.code	16
 1168              		.thumb_func
 1169              		.type	softReset, %function
 1170              	softReset:
 1171              	.LFB55:
 225:RTC.c         **** 
 226:RTC.c         **** void softReset(){
 1172              		.loc 1 226 0
 1173              		.cfi_startproc
 1174 0000 80B5     		push	{r7, lr}
 1175              		.cfi_def_cfa_offset 8
 1176              		.cfi_offset 7, -8
 1177              		.cfi_offset 14, -4
 1178 0002 00AF     		add	r7, sp, #0
 1179              		.cfi_def_cfa_register 7
 227:RTC.c         **** 
 228:RTC.c         **** writeReg(CONTROL_REG_1, RESET_VALUE);
 1180              		.loc 1 228 0
 1181 0004 0020     		mov	r0, #0
 1182 0006 5821     		mov	r1, #88
 1183 0008 FFF7FEFF 		bl	writeReg
 229:RTC.c         ****     
 230:RTC.c         **** }
 1184              		.loc 1 230 0
 1185 000c BD46     		mov	sp, r7
 1186              		@ sp needed
 1187 000e 80BD     		pop	{r7, pc}
 1188              		.cfi_endproc
 1189              	.LFE55:
 1190              		.size	softReset, .-softReset
 1191              		.text
 1192              	.Letext0:
 1193              		.file 2 "./RTC.h"
 1194              		.file 3 "Generated_Source\\PSoC4/cytypes.h"