ARM GAS  C:\Users\Joseph\AppData\Local\Temp\cc9ZSO4a.s 			page 1


   1              		.cpu cortex-m0
   2              		.fpu softvfp
   3              		.eabi_attribute 20, 1
   4              		.eabi_attribute 21, 1
   5              		.eabi_attribute 23, 3
   6              		.eabi_attribute 24, 1
   7              		.eabi_attribute 25, 1
   8              		.eabi_attribute 26, 1
   9              		.eabi_attribute 30, 6
  10              		.eabi_attribute 34, 0
  11              		.eabi_attribute 18, 4
  12              		.code	16
  13              		.file	"SerialPrint.c"
  14              		.text
  15              	.Ltext0:
  16              		.cfi_sections	.debug_frame
  17              		.section	.rodata
  18              		.align	2
  19              	.LC0:
  20 0000 25252563 		.ascii	"%%%c\000"
  20      00
  21              		.section	.text.printNum,"ax",%progbits
  22              		.align	2
  23              		.global	printNum
  24              		.code	16
  25              		.thumb_func
  26              		.type	printNum, %function
  27              	printNum:
  28              	.LFB34:
  29              		.file 1 "SerialPrint.c"
   1:SerialPrint.c **** /* ========================================
   2:SerialPrint.c ****  *
   3:SerialPrint.c ****  * Copyright YOUR COMPANY, THE YEAR
   4:SerialPrint.c ****  * All Rights Reserved
   5:SerialPrint.c ****  * UNPUBLISHED, LICENSED SOFTWARE.
   6:SerialPrint.c ****  *
   7:SerialPrint.c ****  * CONFIDENTIAL AND PROPRIETARY INFORMATION
   8:SerialPrint.c ****  * WHICH IS THE PROPERTY OF your company.
   9:SerialPrint.c ****  *
  10:SerialPrint.c ****  * ========================================
  11:SerialPrint.c **** */
  12:SerialPrint.c **** #include <SerialPrint.h>
  13:SerialPrint.c **** 
  14:SerialPrint.c **** void printNum(uint16 input,char format){
  30              		.loc 1 14 0
  31              		.cfi_startproc
  32 0000 80B5     		push	{r7, lr}
  33              		.cfi_def_cfa_offset 8
  34              		.cfi_offset 7, -8
  35              		.cfi_offset 14, -4
  36 0002 86B0     		sub	sp, sp, #24
  37              		.cfi_def_cfa_offset 32
  38 0004 00AF     		add	r7, sp, #0
  39              		.cfi_def_cfa_register 7
  40 0006 021C     		mov	r2, r0
  41 0008 BB1D     		add	r3, r7, #6
  42 000a 1A80     		strh	r2, [r3]
ARM GAS  C:\Users\Joseph\AppData\Local\Temp\cc9ZSO4a.s 			page 2


  43 000c 7B1D     		add	r3, r7, #5
  44 000e 0A1C     		add	r2, r1, #0
  45 0010 1A70     		strb	r2, [r3]
  15:SerialPrint.c **** 
  16:SerialPrint.c ****     char output[8];
  17:SerialPrint.c ****     char formatter[3];
  18:SerialPrint.c ****     
  19:SerialPrint.c ****     sprintf(formatter,"%%%c", format);
  46              		.loc 1 19 0
  47 0012 7B1D     		add	r3, r7, #5
  48 0014 1B78     		ldrb	r3, [r3]
  49 0016 0C22     		mov	r2, #12
  50 0018 B918     		add	r1, r7, r2
  51 001a 0C4A     		ldr	r2, .L2
  52 001c 081C     		mov	r0, r1
  53 001e 111C     		mov	r1, r2
  54 0020 1A1C     		mov	r2, r3
  55 0022 FFF7FEFF 		bl	sprintf
  20:SerialPrint.c ****     sprintf(output, formatter, input);
  56              		.loc 1 20 0
  57 0026 BB1D     		add	r3, r7, #6
  58 0028 1B88     		ldrh	r3, [r3]
  59 002a 1022     		mov	r2, #16
  60 002c B918     		add	r1, r7, r2
  61 002e 0C22     		mov	r2, #12
  62 0030 BA18     		add	r2, r7, r2
  63 0032 081C     		mov	r0, r1
  64 0034 111C     		mov	r1, r2
  65 0036 1A1C     		mov	r2, r3
  66 0038 FFF7FEFF 		bl	sprintf
  21:SerialPrint.c ****     UART_1_UartPutString(output);
  67              		.loc 1 21 0
  68 003c 1023     		mov	r3, #16
  69 003e FB18     		add	r3, r7, r3
  70 0040 181C     		mov	r0, r3
  71 0042 FFF7FEFF 		bl	UART_1_UartPutString
  22:SerialPrint.c **** }
  72              		.loc 1 22 0
  73 0046 BD46     		mov	sp, r7
  74 0048 06B0     		add	sp, sp, #24
  75              		@ sp needed
  76 004a 80BD     		pop	{r7, pc}
  77              	.L3:
  78              		.align	2
  79              	.L2:
  80 004c 00000000 		.word	.LC0
  81              		.cfi_endproc
  82              	.LFE34:
  83              		.size	printNum, .-printNum
  84              		.section	.rodata
  85 0005 000000   		.align	2
  86              	.LC2:
  87 0008 25252563 		.ascii	"%%%c\012\015\000"
  87      0A0D00
  88 000f 00       		.section	.text.printlnNum,"ax",%progbits
  89              		.align	2
  90              		.global	printlnNum
ARM GAS  C:\Users\Joseph\AppData\Local\Temp\cc9ZSO4a.s 			page 3


  91              		.code	16
  92              		.thumb_func
  93              		.type	printlnNum, %function
  94              	printlnNum:
  95              	.LFB35:
  23:SerialPrint.c **** 
  24:SerialPrint.c **** 
  25:SerialPrint.c **** void printlnNum(uint16 input, char format){
  96              		.loc 1 25 0
  97              		.cfi_startproc
  98 0000 80B5     		push	{r7, lr}
  99              		.cfi_def_cfa_offset 8
 100              		.cfi_offset 7, -8
 101              		.cfi_offset 14, -4
 102 0002 86B0     		sub	sp, sp, #24
 103              		.cfi_def_cfa_offset 32
 104 0004 00AF     		add	r7, sp, #0
 105              		.cfi_def_cfa_register 7
 106 0006 021C     		mov	r2, r0
 107 0008 BB1D     		add	r3, r7, #6
 108 000a 1A80     		strh	r2, [r3]
 109 000c 7B1D     		add	r3, r7, #5
 110 000e 0A1C     		add	r2, r1, #0
 111 0010 1A70     		strb	r2, [r3]
  26:SerialPrint.c **** 
  27:SerialPrint.c ****     char output[8];
  28:SerialPrint.c ****     char formatter[5];
  29:SerialPrint.c ****     
  30:SerialPrint.c ****     sprintf(formatter,"%%%c\n\r", format);
 112              		.loc 1 30 0
 113 0012 7B1D     		add	r3, r7, #5
 114 0014 1B78     		ldrb	r3, [r3]
 115 0016 0822     		mov	r2, #8
 116 0018 B918     		add	r1, r7, r2
 117 001a 0C4A     		ldr	r2, .L5
 118 001c 081C     		mov	r0, r1
 119 001e 111C     		mov	r1, r2
 120 0020 1A1C     		mov	r2, r3
 121 0022 FFF7FEFF 		bl	sprintf
  31:SerialPrint.c ****     sprintf(output, formatter, input);
 122              		.loc 1 31 0
 123 0026 BB1D     		add	r3, r7, #6
 124 0028 1B88     		ldrh	r3, [r3]
 125 002a 1022     		mov	r2, #16
 126 002c B918     		add	r1, r7, r2
 127 002e 0822     		mov	r2, #8
 128 0030 BA18     		add	r2, r7, r2
 129 0032 081C     		mov	r0, r1
 130 0034 111C     		mov	r1, r2
 131 0036 1A1C     		mov	r2, r3
 132 0038 FFF7FEFF 		bl	sprintf
  32:SerialPrint.c ****     UART_1_UartPutString(output);
 133              		.loc 1 32 0
 134 003c 1023     		mov	r3, #16
 135 003e FB18     		add	r3, r7, r3
 136 0040 181C     		mov	r0, r3
 137 0042 FFF7FEFF 		bl	UART_1_UartPutString
ARM GAS  C:\Users\Joseph\AppData\Local\Temp\cc9ZSO4a.s 			page 4


  33:SerialPrint.c ****     
  34:SerialPrint.c **** }
 138              		.loc 1 34 0
 139 0046 BD46     		mov	sp, r7
 140 0048 06B0     		add	sp, sp, #24
 141              		@ sp needed
 142 004a 80BD     		pop	{r7, pc}
 143              	.L6:
 144              		.align	2
 145              	.L5:
 146 004c 08000000 		.word	.LC2
 147              		.cfi_endproc
 148              	.LFE35:
 149              		.size	printlnNum, .-printlnNum
 150              		.text
 151              	.Letext0:
 152              		.file 2 "Generated_Source\\PSoC4/cytypes.h"