ARM GAS  C:\Users\Joseph\AppData\Local\Temp\ccVaTh4X.s 			page 1


   1              		.cpu cortex-m0
   2              		.fpu softvfp
   3              		.eabi_attribute 20, 1
   4              		.eabi_attribute 21, 1
   5              		.eabi_attribute 23, 3
   6              		.eabi_attribute 24, 1
   7              		.eabi_attribute 25, 1
   8              		.eabi_attribute 26, 1
   9              		.eabi_attribute 30, 6
  10              		.eabi_attribute 34, 0
  11              		.eabi_attribute 18, 4
  12              		.code	16
  13              		.file	"TimeFunctions.c"
  14              		.text
  15              	.Ltext0:
  16              		.cfi_sections	.debug_frame
  17              		.section	.text.decodeSec,"ax",%progbits
  18              		.align	2
  19              		.global	decodeSec
  20              		.code	16
  21              		.thumb_func
  22              		.type	decodeSec, %function
  23              	decodeSec:
  24              	.LFB34:
  25              		.file 1 "TimeFunctions.c"
   1:TimeFunctions.c **** /* ========================================
   2:TimeFunctions.c ****  *
   3:TimeFunctions.c ****  * Copyright YOUR COMPANY, THE YEAR
   4:TimeFunctions.c ****  * All Rights Reserved
   5:TimeFunctions.c ****  * UNPUBLISHED, LICENSED SOFTWARE.
   6:TimeFunctions.c ****  *
   7:TimeFunctions.c ****  * CONFIDENTIAL AND PROPRIETARY INFORMATION
   8:TimeFunctions.c ****  * WHICH IS THE PROPERTY OF your company.
   9:TimeFunctions.c ****  *
  10:TimeFunctions.c ****  * ========================================
  11:TimeFunctions.c **** */
  12:TimeFunctions.c **** #include <TimeFunctions.h>
  13:TimeFunctions.c **** 
  14:TimeFunctions.c **** 
  15:TimeFunctions.c **** uint8 decodeSec(uint8 seconds){
  26              		.loc 1 15 0
  27              		.cfi_startproc
  28 0000 80B5     		push	{r7, lr}
  29              		.cfi_def_cfa_offset 8
  30              		.cfi_offset 7, -8
  31              		.cfi_offset 14, -4
  32 0002 84B0     		sub	sp, sp, #16
  33              		.cfi_def_cfa_offset 24
  34 0004 00AF     		add	r7, sp, #0
  35              		.cfi_def_cfa_register 7
  36 0006 021C     		mov	r2, r0
  37 0008 FB1D     		add	r3, r7, #7
  38 000a 1A70     		strb	r2, [r3]
  16:TimeFunctions.c **** 
  17:TimeFunctions.c ****     uint8 tensMask = 0x70;  // 0111 0000 (Table 13, Pg. 20 PCF8523 Datasheet)
  39              		.loc 1 17 0
  40 000c 0F23     		mov	r3, #15
ARM GAS  C:\Users\Joseph\AppData\Local\Temp\ccVaTh4X.s 			page 2


  41 000e FB18     		add	r3, r7, r3
  42 0010 7022     		mov	r2, #112
  43 0012 1A70     		strb	r2, [r3]
  18:TimeFunctions.c ****     uint8 onesMask = 0x0F;  // 0000 1111 (Table 13, Pg. 20 PCF8523 Datasheet)
  44              		.loc 1 18 0
  45 0014 0E23     		mov	r3, #14
  46 0016 FB18     		add	r3, r7, r3
  47 0018 0F22     		mov	r2, #15
  48 001a 1A70     		strb	r2, [r3]
  19:TimeFunctions.c ****     
  20:TimeFunctions.c ****     uint8 tens = (seconds & tensMask)>> 4;
  49              		.loc 1 20 0
  50 001c FB1D     		add	r3, r7, #7
  51 001e 0F22     		mov	r2, #15
  52 0020 BA18     		add	r2, r7, r2
  53 0022 1B78     		ldrb	r3, [r3]
  54 0024 1278     		ldrb	r2, [r2]
  55 0026 1340     		and	r3, r2
  56 0028 DAB2     		uxtb	r2, r3
  57 002a 0D23     		mov	r3, #13
  58 002c FB18     		add	r3, r7, r3
  59 002e 1209     		lsr	r2, r2, #4
  60 0030 1A70     		strb	r2, [r3]
  21:TimeFunctions.c ****     tens = tens * 10;
  61              		.loc 1 21 0
  62 0032 0D23     		mov	r3, #13
  63 0034 FA18     		add	r2, r7, r3
  64 0036 0D23     		mov	r3, #13
  65 0038 FB18     		add	r3, r7, r3
  66 003a 1B78     		ldrb	r3, [r3]
  67 003c 191C     		add	r1, r3, #0
  68 003e 8900     		lsl	r1, r1, #2
  69 0040 CB18     		add	r3, r1, r3
  70 0042 DB18     		add	r3, r3, r3
  71 0044 1370     		strb	r3, [r2]
  22:TimeFunctions.c ****     uint8 ones = (seconds & onesMask);
  72              		.loc 1 22 0
  73 0046 0C23     		mov	r3, #12
  74 0048 FB18     		add	r3, r7, r3
  75 004a FA1D     		add	r2, r7, #7
  76 004c 0E21     		mov	r1, #14
  77 004e 7918     		add	r1, r7, r1
  78 0050 1278     		ldrb	r2, [r2]
  79 0052 0978     		ldrb	r1, [r1]
  80 0054 0A40     		and	r2, r1
  81 0056 1A70     		strb	r2, [r3]
  23:TimeFunctions.c **** 
  24:TimeFunctions.c ****     return tens  + ones; 
  82              		.loc 1 24 0
  83 0058 0D23     		mov	r3, #13
  84 005a FA18     		add	r2, r7, r3
  85 005c 0C23     		mov	r3, #12
  86 005e FB18     		add	r3, r7, r3
  87 0060 1278     		ldrb	r2, [r2]
  88 0062 1B78     		ldrb	r3, [r3]
  89 0064 D318     		add	r3, r2, r3
  90 0066 DBB2     		uxtb	r3, r3
ARM GAS  C:\Users\Joseph\AppData\Local\Temp\ccVaTh4X.s 			page 3


  25:TimeFunctions.c **** }
  91              		.loc 1 25 0
  92 0068 181C     		mov	r0, r3
  93 006a BD46     		mov	sp, r7
  94 006c 04B0     		add	sp, sp, #16
  95              		@ sp needed
  96 006e 80BD     		pop	{r7, pc}
  97              		.cfi_endproc
  98              	.LFE34:
  99              		.size	decodeSec, .-decodeSec
 100              		.global	__aeabi_uidiv
 101              		.section	.text.encodeSec,"ax",%progbits
 102              		.align	2
 103              		.global	encodeSec
 104              		.code	16
 105              		.thumb_func
 106              		.type	encodeSec, %function
 107              	encodeSec:
 108              	.LFB35:
  26:TimeFunctions.c **** uint8 encodeSec(uint8 seconds){
 109              		.loc 1 26 0
 110              		.cfi_startproc
 111 0000 90B5     		push	{r4, r7, lr}
 112              		.cfi_def_cfa_offset 12
 113              		.cfi_offset 4, -12
 114              		.cfi_offset 7, -8
 115              		.cfi_offset 14, -4
 116 0002 85B0     		sub	sp, sp, #20
 117              		.cfi_def_cfa_offset 32
 118 0004 00AF     		add	r7, sp, #0
 119              		.cfi_def_cfa_register 7
 120 0006 021C     		mov	r2, r0
 121 0008 FB1D     		add	r3, r7, #7
 122 000a 1A70     		strb	r2, [r3]
  27:TimeFunctions.c **** 
  28:TimeFunctions.c ****     uint8 tens = seconds / 10;
 123              		.loc 1 28 0
 124 000c 0F23     		mov	r3, #15
 125 000e FC18     		add	r4, r7, r3
 126 0010 FB1D     		add	r3, r7, #7
 127 0012 1B78     		ldrb	r3, [r3]
 128 0014 181C     		mov	r0, r3
 129 0016 0A21     		mov	r1, #10
 130 0018 FFF7FEFF 		bl	__aeabi_uidiv
 131 001c 031C     		mov	r3, r0
 132 001e 2370     		strb	r3, [r4]
  29:TimeFunctions.c ****     uint8 ones = seconds - (tens * 10);
 133              		.loc 1 29 0
 134 0020 0F23     		mov	r3, #15
 135 0022 FB18     		add	r3, r7, r3
 136 0024 1B78     		ldrb	r3, [r3]
 137 0026 0A22     		mov	r2, #10
 138 0028 5242     		neg	r2, r2
 139 002a 5343     		mul	r3, r2
 140 002c D9B2     		uxtb	r1, r3
 141 002e 0E23     		mov	r3, #14
 142 0030 FB18     		add	r3, r7, r3
ARM GAS  C:\Users\Joseph\AppData\Local\Temp\ccVaTh4X.s 			page 4


 143 0032 FA1D     		add	r2, r7, #7
 144 0034 1278     		ldrb	r2, [r2]
 145 0036 8A18     		add	r2, r1, r2
 146 0038 1A70     		strb	r2, [r3]
  30:TimeFunctions.c ****     
  31:TimeFunctions.c ****     return (tens << 4) | ones;
 147              		.loc 1 31 0
 148 003a 0F23     		mov	r3, #15
 149 003c FB18     		add	r3, r7, r3
 150 003e 1B78     		ldrb	r3, [r3]
 151 0040 1B01     		lsl	r3, r3, #4
 152 0042 DAB2     		uxtb	r2, r3
 153 0044 0E23     		mov	r3, #14
 154 0046 FB18     		add	r3, r7, r3
 155 0048 1B78     		ldrb	r3, [r3]
 156 004a 1343     		orr	r3, r2
 157 004c DBB2     		uxtb	r3, r3
 158 004e DBB2     		uxtb	r3, r3
  32:TimeFunctions.c **** 
  33:TimeFunctions.c **** }
 159              		.loc 1 33 0
 160 0050 181C     		mov	r0, r3
 161 0052 BD46     		mov	sp, r7
 162 0054 05B0     		add	sp, sp, #20
 163              		@ sp needed
 164 0056 90BD     		pop	{r4, r7, pc}
 165              		.cfi_endproc
 166              	.LFE35:
 167              		.size	encodeSec, .-encodeSec
 168              		.section	.text.decodeMin,"ax",%progbits
 169              		.align	2
 170              		.global	decodeMin
 171              		.code	16
 172              		.thumb_func
 173              		.type	decodeMin, %function
 174              	decodeMin:
 175              	.LFB36:
  34:TimeFunctions.c **** 
  35:TimeFunctions.c **** uint8 decodeMin(uint8 minutes){
 176              		.loc 1 35 0
 177              		.cfi_startproc
 178 0000 80B5     		push	{r7, lr}
 179              		.cfi_def_cfa_offset 8
 180              		.cfi_offset 7, -8
 181              		.cfi_offset 14, -4
 182 0002 84B0     		sub	sp, sp, #16
 183              		.cfi_def_cfa_offset 24
 184 0004 00AF     		add	r7, sp, #0
 185              		.cfi_def_cfa_register 7
 186 0006 021C     		mov	r2, r0
 187 0008 FB1D     		add	r3, r7, #7
 188 000a 1A70     		strb	r2, [r3]
  36:TimeFunctions.c **** 
  37:TimeFunctions.c ****     uint8 tensMask = 0x70;  // 0111 0000 (Table 14, Pg. 21 PCF8523 Datasheet)
 189              		.loc 1 37 0
 190 000c 0F23     		mov	r3, #15
 191 000e FB18     		add	r3, r7, r3
ARM GAS  C:\Users\Joseph\AppData\Local\Temp\ccVaTh4X.s 			page 5


 192 0010 7022     		mov	r2, #112
 193 0012 1A70     		strb	r2, [r3]
  38:TimeFunctions.c ****     uint8 onesMask = 0x0F;  // 0000 1111 (Table 14, Pg. 21 PCF8523 Datasheet)
 194              		.loc 1 38 0
 195 0014 0E23     		mov	r3, #14
 196 0016 FB18     		add	r3, r7, r3
 197 0018 0F22     		mov	r2, #15
 198 001a 1A70     		strb	r2, [r3]
  39:TimeFunctions.c ****     
  40:TimeFunctions.c ****     uint8 tens = (minutes & tensMask)>> 4;
 199              		.loc 1 40 0
 200 001c FB1D     		add	r3, r7, #7
 201 001e 0F22     		mov	r2, #15
 202 0020 BA18     		add	r2, r7, r2
 203 0022 1B78     		ldrb	r3, [r3]
 204 0024 1278     		ldrb	r2, [r2]
 205 0026 1340     		and	r3, r2
 206 0028 DAB2     		uxtb	r2, r3
 207 002a 0D23     		mov	r3, #13
 208 002c FB18     		add	r3, r7, r3
 209 002e 1209     		lsr	r2, r2, #4
 210 0030 1A70     		strb	r2, [r3]
  41:TimeFunctions.c ****     tens = tens * 10;
 211              		.loc 1 41 0
 212 0032 0D23     		mov	r3, #13
 213 0034 FA18     		add	r2, r7, r3
 214 0036 0D23     		mov	r3, #13
 215 0038 FB18     		add	r3, r7, r3
 216 003a 1B78     		ldrb	r3, [r3]
 217 003c 191C     		add	r1, r3, #0
 218 003e 8900     		lsl	r1, r1, #2
 219 0040 CB18     		add	r3, r1, r3
 220 0042 DB18     		add	r3, r3, r3
 221 0044 1370     		strb	r3, [r2]
  42:TimeFunctions.c ****     uint8 ones = (minutes & onesMask);
 222              		.loc 1 42 0
 223 0046 0C23     		mov	r3, #12
 224 0048 FB18     		add	r3, r7, r3
 225 004a FA1D     		add	r2, r7, #7
 226 004c 0E21     		mov	r1, #14
 227 004e 7918     		add	r1, r7, r1
 228 0050 1278     		ldrb	r2, [r2]
 229 0052 0978     		ldrb	r1, [r1]
 230 0054 0A40     		and	r2, r1
 231 0056 1A70     		strb	r2, [r3]
  43:TimeFunctions.c **** 
  44:TimeFunctions.c ****     return tens  + ones; 
 232              		.loc 1 44 0
 233 0058 0D23     		mov	r3, #13
 234 005a FA18     		add	r2, r7, r3
 235 005c 0C23     		mov	r3, #12
 236 005e FB18     		add	r3, r7, r3
 237 0060 1278     		ldrb	r2, [r2]
 238 0062 1B78     		ldrb	r3, [r3]
 239 0064 D318     		add	r3, r2, r3
 240 0066 DBB2     		uxtb	r3, r3
  45:TimeFunctions.c **** }
ARM GAS  C:\Users\Joseph\AppData\Local\Temp\ccVaTh4X.s 			page 6


 241              		.loc 1 45 0
 242 0068 181C     		mov	r0, r3
 243 006a BD46     		mov	sp, r7
 244 006c 04B0     		add	sp, sp, #16
 245              		@ sp needed
 246 006e 80BD     		pop	{r7, pc}
 247              		.cfi_endproc
 248              	.LFE36:
 249              		.size	decodeMin, .-decodeMin
 250              		.section	.text.encodeMin,"ax",%progbits
 251              		.align	2
 252              		.global	encodeMin
 253              		.code	16
 254              		.thumb_func
 255              		.type	encodeMin, %function
 256              	encodeMin:
 257              	.LFB37:
  46:TimeFunctions.c **** uint8 encodeMin(uint8 minutes){
 258              		.loc 1 46 0
 259              		.cfi_startproc
 260 0000 90B5     		push	{r4, r7, lr}
 261              		.cfi_def_cfa_offset 12
 262              		.cfi_offset 4, -12
 263              		.cfi_offset 7, -8
 264              		.cfi_offset 14, -4
 265 0002 85B0     		sub	sp, sp, #20
 266              		.cfi_def_cfa_offset 32
 267 0004 00AF     		add	r7, sp, #0
 268              		.cfi_def_cfa_register 7
 269 0006 021C     		mov	r2, r0
 270 0008 FB1D     		add	r3, r7, #7
 271 000a 1A70     		strb	r2, [r3]
  47:TimeFunctions.c **** 
  48:TimeFunctions.c ****     uint8 tens = minutes / 10;
 272              		.loc 1 48 0
 273 000c 0F23     		mov	r3, #15
 274 000e FC18     		add	r4, r7, r3
 275 0010 FB1D     		add	r3, r7, #7
 276 0012 1B78     		ldrb	r3, [r3]
 277 0014 181C     		mov	r0, r3
 278 0016 0A21     		mov	r1, #10
 279 0018 FFF7FEFF 		bl	__aeabi_uidiv
 280 001c 031C     		mov	r3, r0
 281 001e 2370     		strb	r3, [r4]
  49:TimeFunctions.c ****     uint8 ones = minutes - (tens * 10);
 282              		.loc 1 49 0
 283 0020 0F23     		mov	r3, #15
 284 0022 FB18     		add	r3, r7, r3
 285 0024 1B78     		ldrb	r3, [r3]
 286 0026 0A22     		mov	r2, #10
 287 0028 5242     		neg	r2, r2
 288 002a 5343     		mul	r3, r2
 289 002c D9B2     		uxtb	r1, r3
 290 002e 0E23     		mov	r3, #14
 291 0030 FB18     		add	r3, r7, r3
 292 0032 FA1D     		add	r2, r7, #7
 293 0034 1278     		ldrb	r2, [r2]
ARM GAS  C:\Users\Joseph\AppData\Local\Temp\ccVaTh4X.s 			page 7


 294 0036 8A18     		add	r2, r1, r2
 295 0038 1A70     		strb	r2, [r3]
  50:TimeFunctions.c ****     
  51:TimeFunctions.c ****     return (tens << 4) | ones;
 296              		.loc 1 51 0
 297 003a 0F23     		mov	r3, #15
 298 003c FB18     		add	r3, r7, r3
 299 003e 1B78     		ldrb	r3, [r3]
 300 0040 1B01     		lsl	r3, r3, #4
 301 0042 DAB2     		uxtb	r2, r3
 302 0044 0E23     		mov	r3, #14
 303 0046 FB18     		add	r3, r7, r3
 304 0048 1B78     		ldrb	r3, [r3]
 305 004a 1343     		orr	r3, r2
 306 004c DBB2     		uxtb	r3, r3
 307 004e DBB2     		uxtb	r3, r3
  52:TimeFunctions.c **** 
  53:TimeFunctions.c **** }
 308              		.loc 1 53 0
 309 0050 181C     		mov	r0, r3
 310 0052 BD46     		mov	sp, r7
 311 0054 05B0     		add	sp, sp, #20
 312              		@ sp needed
 313 0056 90BD     		pop	{r4, r7, pc}
 314              		.cfi_endproc
 315              	.LFE37:
 316              		.size	encodeMin, .-encodeMin
 317              		.section	.text.decodeHours12,"ax",%progbits
 318              		.align	2
 319              		.global	decodeHours12
 320              		.code	16
 321              		.thumb_func
 322              		.type	decodeHours12, %function
 323              	decodeHours12:
 324              	.LFB38:
  54:TimeFunctions.c **** 
  55:TimeFunctions.c **** uint8 decodeHours12(uint8 hours){
 325              		.loc 1 55 0
 326              		.cfi_startproc
 327 0000 80B5     		push	{r7, lr}
 328              		.cfi_def_cfa_offset 8
 329              		.cfi_offset 7, -8
 330              		.cfi_offset 14, -4
 331 0002 84B0     		sub	sp, sp, #16
 332              		.cfi_def_cfa_offset 24
 333 0004 00AF     		add	r7, sp, #0
 334              		.cfi_def_cfa_register 7
 335 0006 021C     		mov	r2, r0
 336 0008 FB1D     		add	r3, r7, #7
 337 000a 1A70     		strb	r2, [r3]
  56:TimeFunctions.c ****     
  57:TimeFunctions.c ****     uint8 AmPmMask = 0x20;  // 0010 0000 (Table 15, Pg. 21 PCF8523 Datasheet)
 338              		.loc 1 57 0
 339 000c 0F23     		mov	r3, #15
 340 000e FB18     		add	r3, r7, r3
 341 0010 2022     		mov	r2, #32
 342 0012 1A70     		strb	r2, [r3]
ARM GAS  C:\Users\Joseph\AppData\Local\Temp\ccVaTh4X.s 			page 8


  58:TimeFunctions.c ****     uint8 tensMask = 0x10;  // 0001 0000 (Table 15, Pg. 21 PCF8523 Datasheet)
 343              		.loc 1 58 0
 344 0014 0E23     		mov	r3, #14
 345 0016 FB18     		add	r3, r7, r3
 346 0018 1022     		mov	r2, #16
 347 001a 1A70     		strb	r2, [r3]
  59:TimeFunctions.c ****     uint8 onesMask = 0x0F;  // 0000 1111 (Table 15, Pg. 21 PCF8523 Datasheet)
 348              		.loc 1 59 0
 349 001c 0D23     		mov	r3, #13
 350 001e FB18     		add	r3, r7, r3
 351 0020 0F22     		mov	r2, #15
 352 0022 1A70     		strb	r2, [r3]
  60:TimeFunctions.c ****     
  61:TimeFunctions.c ****     uint8 tens = (hours & tensMask)>> 4;
 353              		.loc 1 61 0
 354 0024 FB1D     		add	r3, r7, #7
 355 0026 0E22     		mov	r2, #14
 356 0028 BA18     		add	r2, r7, r2
 357 002a 1B78     		ldrb	r3, [r3]
 358 002c 1278     		ldrb	r2, [r2]
 359 002e 1340     		and	r3, r2
 360 0030 DAB2     		uxtb	r2, r3
 361 0032 0C23     		mov	r3, #12
 362 0034 FB18     		add	r3, r7, r3
 363 0036 1209     		lsr	r2, r2, #4
 364 0038 1A70     		strb	r2, [r3]
  62:TimeFunctions.c ****     tens = tens * 10;
 365              		.loc 1 62 0
 366 003a 0C23     		mov	r3, #12
 367 003c FA18     		add	r2, r7, r3
 368 003e 0C23     		mov	r3, #12
 369 0040 FB18     		add	r3, r7, r3
 370 0042 1B78     		ldrb	r3, [r3]
 371 0044 191C     		add	r1, r3, #0
 372 0046 8900     		lsl	r1, r1, #2
 373 0048 CB18     		add	r3, r1, r3
 374 004a DB18     		add	r3, r3, r3
 375 004c 1370     		strb	r3, [r2]
  63:TimeFunctions.c ****     uint8 ones = (hours & onesMask);
 376              		.loc 1 63 0
 377 004e 0B23     		mov	r3, #11
 378 0050 FB18     		add	r3, r7, r3
 379 0052 FA1D     		add	r2, r7, #7
 380 0054 0D21     		mov	r1, #13
 381 0056 7918     		add	r1, r7, r1
 382 0058 1278     		ldrb	r2, [r2]
 383 005a 0978     		ldrb	r1, [r1]
 384 005c 0A40     		and	r2, r1
 385 005e 1A70     		strb	r2, [r3]
  64:TimeFunctions.c ****     
  65:TimeFunctions.c ****     if((AmPmMask & hours) == 0){
  66:TimeFunctions.c ****     //tens += 100;
  67:TimeFunctions.c ****         
  68:TimeFunctions.c ****     }
  69:TimeFunctions.c ****     else{
  70:TimeFunctions.c ****         
  71:TimeFunctions.c ****         
ARM GAS  C:\Users\Joseph\AppData\Local\Temp\ccVaTh4X.s 			page 9


  72:TimeFunctions.c ****     }
  73:TimeFunctions.c ****     return tens  + ones;
 386              		.loc 1 73 0
 387 0060 0C23     		mov	r3, #12
 388 0062 FA18     		add	r2, r7, r3
 389 0064 0B23     		mov	r3, #11
 390 0066 FB18     		add	r3, r7, r3
 391 0068 1278     		ldrb	r2, [r2]
 392 006a 1B78     		ldrb	r3, [r3]
 393 006c D318     		add	r3, r2, r3
 394 006e DBB2     		uxtb	r3, r3
  74:TimeFunctions.c **** }
 395              		.loc 1 74 0
 396 0070 181C     		mov	r0, r3
 397 0072 BD46     		mov	sp, r7
 398 0074 04B0     		add	sp, sp, #16
 399              		@ sp needed
 400 0076 80BD     		pop	{r7, pc}
 401              		.cfi_endproc
 402              	.LFE38:
 403              		.size	decodeHours12, .-decodeHours12
 404              		.section	.text.decodeHours24,"ax",%progbits
 405              		.align	2
 406              		.global	decodeHours24
 407              		.code	16
 408              		.thumb_func
 409              		.type	decodeHours24, %function
 410              	decodeHours24:
 411              	.LFB39:
  75:TimeFunctions.c **** 
  76:TimeFunctions.c **** uint8 decodeHours24(uint8 hours){
 412              		.loc 1 76 0
 413              		.cfi_startproc
 414 0000 80B5     		push	{r7, lr}
 415              		.cfi_def_cfa_offset 8
 416              		.cfi_offset 7, -8
 417              		.cfi_offset 14, -4
 418 0002 84B0     		sub	sp, sp, #16
 419              		.cfi_def_cfa_offset 24
 420 0004 00AF     		add	r7, sp, #0
 421              		.cfi_def_cfa_register 7
 422 0006 021C     		mov	r2, r0
 423 0008 FB1D     		add	r3, r7, #7
 424 000a 1A70     		strb	r2, [r3]
  77:TimeFunctions.c **** 
  78:TimeFunctions.c ****     uint8 tensMask = 0x30;  // 0011 0000 (Table 15, Pg. 21 PCF8523 Datasheet)
 425              		.loc 1 78 0
 426 000c 0F23     		mov	r3, #15
 427 000e FB18     		add	r3, r7, r3
 428 0010 3022     		mov	r2, #48
 429 0012 1A70     		strb	r2, [r3]
  79:TimeFunctions.c ****     uint8 onesMask = 0x0F;  // 0000 1111 (Table 15, Pg. 21 PCF8523 Datasheet)
 430              		.loc 1 79 0
 431 0014 0E23     		mov	r3, #14
 432 0016 FB18     		add	r3, r7, r3
 433 0018 0F22     		mov	r2, #15
 434 001a 1A70     		strb	r2, [r3]
ARM GAS  C:\Users\Joseph\AppData\Local\Temp\ccVaTh4X.s 			page 10


  80:TimeFunctions.c ****     
  81:TimeFunctions.c ****     uint8 tens = (hours & tensMask)>> 4;
 435              		.loc 1 81 0
 436 001c FB1D     		add	r3, r7, #7
 437 001e 0F22     		mov	r2, #15
 438 0020 BA18     		add	r2, r7, r2
 439 0022 1B78     		ldrb	r3, [r3]
 440 0024 1278     		ldrb	r2, [r2]
 441 0026 1340     		and	r3, r2
 442 0028 DAB2     		uxtb	r2, r3
 443 002a 0D23     		mov	r3, #13
 444 002c FB18     		add	r3, r7, r3
 445 002e 1209     		lsr	r2, r2, #4
 446 0030 1A70     		strb	r2, [r3]
  82:TimeFunctions.c ****     tens = tens * 10;
 447              		.loc 1 82 0
 448 0032 0D23     		mov	r3, #13
 449 0034 FA18     		add	r2, r7, r3
 450 0036 0D23     		mov	r3, #13
 451 0038 FB18     		add	r3, r7, r3
 452 003a 1B78     		ldrb	r3, [r3]
 453 003c 191C     		add	r1, r3, #0
 454 003e 8900     		lsl	r1, r1, #2
 455 0040 CB18     		add	r3, r1, r3
 456 0042 DB18     		add	r3, r3, r3
 457 0044 1370     		strb	r3, [r2]
  83:TimeFunctions.c ****     uint8 ones = (hours & onesMask);
 458              		.loc 1 83 0
 459 0046 0C23     		mov	r3, #12
 460 0048 FB18     		add	r3, r7, r3
 461 004a FA1D     		add	r2, r7, #7
 462 004c 0E21     		mov	r1, #14
 463 004e 7918     		add	r1, r7, r1
 464 0050 1278     		ldrb	r2, [r2]
 465 0052 0978     		ldrb	r1, [r1]
 466 0054 0A40     		and	r2, r1
 467 0056 1A70     		strb	r2, [r3]
  84:TimeFunctions.c **** 
  85:TimeFunctions.c ****     return tens  + ones; 
 468              		.loc 1 85 0
 469 0058 0D23     		mov	r3, #13
 470 005a FA18     		add	r2, r7, r3
 471 005c 0C23     		mov	r3, #12
 472 005e FB18     		add	r3, r7, r3
 473 0060 1278     		ldrb	r2, [r2]
 474 0062 1B78     		ldrb	r3, [r3]
 475 0064 D318     		add	r3, r2, r3
 476 0066 DBB2     		uxtb	r3, r3
  86:TimeFunctions.c ****     
  87:TimeFunctions.c **** }
 477              		.loc 1 87 0
 478 0068 181C     		mov	r0, r3
 479 006a BD46     		mov	sp, r7
 480 006c 04B0     		add	sp, sp, #16
 481              		@ sp needed
 482 006e 80BD     		pop	{r7, pc}
 483              		.cfi_endproc
ARM GAS  C:\Users\Joseph\AppData\Local\Temp\ccVaTh4X.s 			page 11


 484              	.LFE39:
 485              		.size	decodeHours24, .-decodeHours24
 486              		.section	.text.encodeHours24,"ax",%progbits
 487              		.align	2
 488              		.global	encodeHours24
 489              		.code	16
 490              		.thumb_func
 491              		.type	encodeHours24, %function
 492              	encodeHours24:
 493              	.LFB40:
  88:TimeFunctions.c **** uint8 encodeHours24(uint8 hours){
 494              		.loc 1 88 0
 495              		.cfi_startproc
 496 0000 90B5     		push	{r4, r7, lr}
 497              		.cfi_def_cfa_offset 12
 498              		.cfi_offset 4, -12
 499              		.cfi_offset 7, -8
 500              		.cfi_offset 14, -4
 501 0002 85B0     		sub	sp, sp, #20
 502              		.cfi_def_cfa_offset 32
 503 0004 00AF     		add	r7, sp, #0
 504              		.cfi_def_cfa_register 7
 505 0006 021C     		mov	r2, r0
 506 0008 FB1D     		add	r3, r7, #7
 507 000a 1A70     		strb	r2, [r3]
  89:TimeFunctions.c **** 
  90:TimeFunctions.c ****     uint8 tens = hours / 10;   
 508              		.loc 1 90 0
 509 000c 0F23     		mov	r3, #15
 510 000e FC18     		add	r4, r7, r3
 511 0010 FB1D     		add	r3, r7, #7
 512 0012 1B78     		ldrb	r3, [r3]
 513 0014 181C     		mov	r0, r3
 514 0016 0A21     		mov	r1, #10
 515 0018 FFF7FEFF 		bl	__aeabi_uidiv
 516 001c 031C     		mov	r3, r0
 517 001e 2370     		strb	r3, [r4]
  91:TimeFunctions.c ****     uint8 ones = hours -(tens *10);  
 518              		.loc 1 91 0
 519 0020 0F23     		mov	r3, #15
 520 0022 FB18     		add	r3, r7, r3
 521 0024 1B78     		ldrb	r3, [r3]
 522 0026 0A22     		mov	r2, #10
 523 0028 5242     		neg	r2, r2
 524 002a 5343     		mul	r3, r2
 525 002c D9B2     		uxtb	r1, r3
 526 002e 0E23     		mov	r3, #14
 527 0030 FB18     		add	r3, r7, r3
 528 0032 FA1D     		add	r2, r7, #7
 529 0034 1278     		ldrb	r2, [r2]
 530 0036 8A18     		add	r2, r1, r2
 531 0038 1A70     		strb	r2, [r3]
  92:TimeFunctions.c ****     
  93:TimeFunctions.c ****     tens = (tens<<4) ;
 532              		.loc 1 93 0
 533 003a 0F23     		mov	r3, #15
 534 003c FB18     		add	r3, r7, r3
ARM GAS  C:\Users\Joseph\AppData\Local\Temp\ccVaTh4X.s 			page 12


 535 003e 0F22     		mov	r2, #15
 536 0040 BA18     		add	r2, r7, r2
 537 0042 1278     		ldrb	r2, [r2]
 538 0044 1201     		lsl	r2, r2, #4
 539 0046 1A70     		strb	r2, [r3]
  94:TimeFunctions.c ****        
  95:TimeFunctions.c ****     uint8 output = (tens | ones);
 540              		.loc 1 95 0
 541 0048 0D23     		mov	r3, #13
 542 004a FB18     		add	r3, r7, r3
 543 004c 0F22     		mov	r2, #15
 544 004e B918     		add	r1, r7, r2
 545 0050 0E22     		mov	r2, #14
 546 0052 BA18     		add	r2, r7, r2
 547 0054 0978     		ldrb	r1, [r1]
 548 0056 1278     		ldrb	r2, [r2]
 549 0058 0A43     		orr	r2, r1
 550 005a 1A70     		strb	r2, [r3]
  96:TimeFunctions.c **** 
  97:TimeFunctions.c ****     return output;
 551              		.loc 1 97 0
 552 005c 0D23     		mov	r3, #13
 553 005e FB18     		add	r3, r7, r3
 554 0060 1B78     		ldrb	r3, [r3]
  98:TimeFunctions.c **** 
  99:TimeFunctions.c **** }
 555              		.loc 1 99 0
 556 0062 181C     		mov	r0, r3
 557 0064 BD46     		mov	sp, r7
 558 0066 05B0     		add	sp, sp, #20
 559              		@ sp needed
 560 0068 90BD     		pop	{r4, r7, pc}
 561              		.cfi_endproc
 562              	.LFE40:
 563              		.size	encodeHours24, .-encodeHours24
 564 006a C046     		.section	.text.decodeDays,"ax",%progbits
 565              		.align	2
 566              		.global	decodeDays
 567              		.code	16
 568              		.thumb_func
 569              		.type	decodeDays, %function
 570              	decodeDays:
 571              	.LFB41:
 100:TimeFunctions.c **** 
 101:TimeFunctions.c **** uint8 decodeDays(uint8 days){
 572              		.loc 1 101 0
 573              		.cfi_startproc
 574 0000 80B5     		push	{r7, lr}
 575              		.cfi_def_cfa_offset 8
 576              		.cfi_offset 7, -8
 577              		.cfi_offset 14, -4
 578 0002 84B0     		sub	sp, sp, #16
 579              		.cfi_def_cfa_offset 24
 580 0004 00AF     		add	r7, sp, #0
 581              		.cfi_def_cfa_register 7
 582 0006 021C     		mov	r2, r0
 583 0008 FB1D     		add	r3, r7, #7
ARM GAS  C:\Users\Joseph\AppData\Local\Temp\ccVaTh4X.s 			page 13


 584 000a 1A70     		strb	r2, [r3]
 102:TimeFunctions.c **** 
 103:TimeFunctions.c ****     uint8 tensMask = 0x30;  // 0011 0000 (Table 16, Pg. 21 PCF8523 Datasheet)
 585              		.loc 1 103 0
 586 000c 0F23     		mov	r3, #15
 587 000e FB18     		add	r3, r7, r3
 588 0010 3022     		mov	r2, #48
 589 0012 1A70     		strb	r2, [r3]
 104:TimeFunctions.c ****     uint8 onesMask = 0x0F;  // 0000 1111 (Table 16, Pg. 21 PCF8523 Datasheet)
 590              		.loc 1 104 0
 591 0014 0E23     		mov	r3, #14
 592 0016 FB18     		add	r3, r7, r3
 593 0018 0F22     		mov	r2, #15
 594 001a 1A70     		strb	r2, [r3]
 105:TimeFunctions.c ****     
 106:TimeFunctions.c ****     uint8 tens = (days & tensMask)>> 4;
 595              		.loc 1 106 0
 596 001c FB1D     		add	r3, r7, #7
 597 001e 0F22     		mov	r2, #15
 598 0020 BA18     		add	r2, r7, r2
 599 0022 1B78     		ldrb	r3, [r3]
 600 0024 1278     		ldrb	r2, [r2]
 601 0026 1340     		and	r3, r2
 602 0028 DAB2     		uxtb	r2, r3
 603 002a 0D23     		mov	r3, #13
 604 002c FB18     		add	r3, r7, r3
 605 002e 1209     		lsr	r2, r2, #4
 606 0030 1A70     		strb	r2, [r3]
 107:TimeFunctions.c ****     tens = tens * 10;
 607              		.loc 1 107 0
 608 0032 0D23     		mov	r3, #13
 609 0034 FA18     		add	r2, r7, r3
 610 0036 0D23     		mov	r3, #13
 611 0038 FB18     		add	r3, r7, r3
 612 003a 1B78     		ldrb	r3, [r3]
 613 003c 191C     		add	r1, r3, #0
 614 003e 8900     		lsl	r1, r1, #2
 615 0040 CB18     		add	r3, r1, r3
 616 0042 DB18     		add	r3, r3, r3
 617 0044 1370     		strb	r3, [r2]
 108:TimeFunctions.c ****     uint8 ones = (days & onesMask);
 618              		.loc 1 108 0
 619 0046 0C23     		mov	r3, #12
 620 0048 FB18     		add	r3, r7, r3
 621 004a FA1D     		add	r2, r7, #7
 622 004c 0E21     		mov	r1, #14
 623 004e 7918     		add	r1, r7, r1
 624 0050 1278     		ldrb	r2, [r2]
 625 0052 0978     		ldrb	r1, [r1]
 626 0054 0A40     		and	r2, r1
 627 0056 1A70     		strb	r2, [r3]
 109:TimeFunctions.c **** 
 110:TimeFunctions.c ****     return tens  + ones;
 628              		.loc 1 110 0
 629 0058 0D23     		mov	r3, #13
 630 005a FA18     		add	r2, r7, r3
 631 005c 0C23     		mov	r3, #12
ARM GAS  C:\Users\Joseph\AppData\Local\Temp\ccVaTh4X.s 			page 14


 632 005e FB18     		add	r3, r7, r3
 633 0060 1278     		ldrb	r2, [r2]
 634 0062 1B78     		ldrb	r3, [r3]
 635 0064 D318     		add	r3, r2, r3
 636 0066 DBB2     		uxtb	r3, r3
 111:TimeFunctions.c **** 
 112:TimeFunctions.c **** }
 637              		.loc 1 112 0
 638 0068 181C     		mov	r0, r3
 639 006a BD46     		mov	sp, r7
 640 006c 04B0     		add	sp, sp, #16
 641              		@ sp needed
 642 006e 80BD     		pop	{r7, pc}
 643              		.cfi_endproc
 644              	.LFE41:
 645              		.size	decodeDays, .-decodeDays
 646              		.section	.text.encodeDays,"ax",%progbits
 647              		.align	2
 648              		.global	encodeDays
 649              		.code	16
 650              		.thumb_func
 651              		.type	encodeDays, %function
 652              	encodeDays:
 653              	.LFB42:
 113:TimeFunctions.c **** uint8 encodeDays(uint8 days){
 654              		.loc 1 113 0
 655              		.cfi_startproc
 656 0000 90B5     		push	{r4, r7, lr}
 657              		.cfi_def_cfa_offset 12
 658              		.cfi_offset 4, -12
 659              		.cfi_offset 7, -8
 660              		.cfi_offset 14, -4
 661 0002 85B0     		sub	sp, sp, #20
 662              		.cfi_def_cfa_offset 32
 663 0004 00AF     		add	r7, sp, #0
 664              		.cfi_def_cfa_register 7
 665 0006 021C     		mov	r2, r0
 666 0008 FB1D     		add	r3, r7, #7
 667 000a 1A70     		strb	r2, [r3]
 114:TimeFunctions.c **** 
 115:TimeFunctions.c ****     uint8 tens = days / 10;
 668              		.loc 1 115 0
 669 000c 0F23     		mov	r3, #15
 670 000e FC18     		add	r4, r7, r3
 671 0010 FB1D     		add	r3, r7, #7
 672 0012 1B78     		ldrb	r3, [r3]
 673 0014 181C     		mov	r0, r3
 674 0016 0A21     		mov	r1, #10
 675 0018 FFF7FEFF 		bl	__aeabi_uidiv
 676 001c 031C     		mov	r3, r0
 677 001e 2370     		strb	r3, [r4]
 116:TimeFunctions.c ****     uint8 ones = days - (tens * 10);
 678              		.loc 1 116 0
 679 0020 0F23     		mov	r3, #15
 680 0022 FB18     		add	r3, r7, r3
 681 0024 1B78     		ldrb	r3, [r3]
 682 0026 0A22     		mov	r2, #10
ARM GAS  C:\Users\Joseph\AppData\Local\Temp\ccVaTh4X.s 			page 15


 683 0028 5242     		neg	r2, r2
 684 002a 5343     		mul	r3, r2
 685 002c D9B2     		uxtb	r1, r3
 686 002e 0E23     		mov	r3, #14
 687 0030 FB18     		add	r3, r7, r3
 688 0032 FA1D     		add	r2, r7, #7
 689 0034 1278     		ldrb	r2, [r2]
 690 0036 8A18     		add	r2, r1, r2
 691 0038 1A70     		strb	r2, [r3]
 117:TimeFunctions.c ****     
 118:TimeFunctions.c ****     return (tens << 4) | ones;
 692              		.loc 1 118 0
 693 003a 0F23     		mov	r3, #15
 694 003c FB18     		add	r3, r7, r3
 695 003e 1B78     		ldrb	r3, [r3]
 696 0040 1B01     		lsl	r3, r3, #4
 697 0042 DAB2     		uxtb	r2, r3
 698 0044 0E23     		mov	r3, #14
 699 0046 FB18     		add	r3, r7, r3
 700 0048 1B78     		ldrb	r3, [r3]
 701 004a 1343     		orr	r3, r2
 702 004c DBB2     		uxtb	r3, r3
 703 004e DBB2     		uxtb	r3, r3
 119:TimeFunctions.c **** 
 120:TimeFunctions.c **** }
 704              		.loc 1 120 0
 705 0050 181C     		mov	r0, r3
 706 0052 BD46     		mov	sp, r7
 707 0054 05B0     		add	sp, sp, #20
 708              		@ sp needed
 709 0056 90BD     		pop	{r4, r7, pc}
 710              		.cfi_endproc
 711              	.LFE42:
 712              		.size	encodeDays, .-encodeDays
 713              		.section	.text.decodeWeekDay,"ax",%progbits
 714              		.align	2
 715              		.global	decodeWeekDay
 716              		.code	16
 717              		.thumb_func
 718              		.type	decodeWeekDay, %function
 719              	decodeWeekDay:
 720              	.LFB43:
 121:TimeFunctions.c **** 
 122:TimeFunctions.c **** uint8 decodeWeekDay(uint8 weekday){
 721              		.loc 1 122 0
 722              		.cfi_startproc
 723 0000 80B5     		push	{r7, lr}
 724              		.cfi_def_cfa_offset 8
 725              		.cfi_offset 7, -8
 726              		.cfi_offset 14, -4
 727 0002 84B0     		sub	sp, sp, #16
 728              		.cfi_def_cfa_offset 24
 729 0004 00AF     		add	r7, sp, #0
 730              		.cfi_def_cfa_register 7
 731 0006 021C     		mov	r2, r0
 732 0008 FB1D     		add	r3, r7, #7
 733 000a 1A70     		strb	r2, [r3]
ARM GAS  C:\Users\Joseph\AppData\Local\Temp\ccVaTh4X.s 			page 16


 123:TimeFunctions.c **** 
 124:TimeFunctions.c ****     uint8 onesMask = 0x0F;  // 0000 1111 (Table 17, Pg. 22 PCF8523 Datasheet)
 734              		.loc 1 124 0
 735 000c 0F23     		mov	r3, #15
 736 000e FB18     		add	r3, r7, r3
 737 0010 0F22     		mov	r2, #15
 738 0012 1A70     		strb	r2, [r3]
 125:TimeFunctions.c ****     
 126:TimeFunctions.c ****     uint8 ones = (weekday & onesMask);
 739              		.loc 1 126 0
 740 0014 0E23     		mov	r3, #14
 741 0016 FB18     		add	r3, r7, r3
 742 0018 FA1D     		add	r2, r7, #7
 743 001a 0F21     		mov	r1, #15
 744 001c 7918     		add	r1, r7, r1
 745 001e 1278     		ldrb	r2, [r2]
 746 0020 0978     		ldrb	r1, [r1]
 747 0022 0A40     		and	r2, r1
 748 0024 1A70     		strb	r2, [r3]
 127:TimeFunctions.c **** 
 128:TimeFunctions.c ****     return ones;
 749              		.loc 1 128 0
 750 0026 0E23     		mov	r3, #14
 751 0028 FB18     		add	r3, r7, r3
 752 002a 1B78     		ldrb	r3, [r3]
 129:TimeFunctions.c **** 
 130:TimeFunctions.c **** }
 753              		.loc 1 130 0
 754 002c 181C     		mov	r0, r3
 755 002e BD46     		mov	sp, r7
 756 0030 04B0     		add	sp, sp, #16
 757              		@ sp needed
 758 0032 80BD     		pop	{r7, pc}
 759              		.cfi_endproc
 760              	.LFE43:
 761              		.size	decodeWeekDay, .-decodeWeekDay
 762              		.section	.text.encodeWeekDay,"ax",%progbits
 763              		.align	2
 764              		.global	encodeWeekDay
 765              		.code	16
 766              		.thumb_func
 767              		.type	encodeWeekDay, %function
 768              	encodeWeekDay:
 769              	.LFB44:
 131:TimeFunctions.c **** uint8 encodeWeekDay(uint8 weekday){
 770              		.loc 1 131 0
 771              		.cfi_startproc
 772 0000 80B5     		push	{r7, lr}
 773              		.cfi_def_cfa_offset 8
 774              		.cfi_offset 7, -8
 775              		.cfi_offset 14, -4
 776 0002 82B0     		sub	sp, sp, #8
 777              		.cfi_def_cfa_offset 16
 778 0004 00AF     		add	r7, sp, #0
 779              		.cfi_def_cfa_register 7
 780 0006 021C     		mov	r2, r0
 781 0008 FB1D     		add	r3, r7, #7
ARM GAS  C:\Users\Joseph\AppData\Local\Temp\ccVaTh4X.s 			page 17


 782 000a 1A70     		strb	r2, [r3]
 132:TimeFunctions.c **** 
 133:TimeFunctions.c ****     return weekday;
 783              		.loc 1 133 0
 784 000c FB1D     		add	r3, r7, #7
 785 000e 1B78     		ldrb	r3, [r3]
 134:TimeFunctions.c **** 
 135:TimeFunctions.c **** }
 786              		.loc 1 135 0
 787 0010 181C     		mov	r0, r3
 788 0012 BD46     		mov	sp, r7
 789 0014 02B0     		add	sp, sp, #8
 790              		@ sp needed
 791 0016 80BD     		pop	{r7, pc}
 792              		.cfi_endproc
 793              	.LFE44:
 794              		.size	encodeWeekDay, .-encodeWeekDay
 795              		.section	.text.decodeMonth,"ax",%progbits
 796              		.align	2
 797              		.global	decodeMonth
 798              		.code	16
 799              		.thumb_func
 800              		.type	decodeMonth, %function
 801              	decodeMonth:
 802              	.LFB45:
 136:TimeFunctions.c **** 
 137:TimeFunctions.c **** uint8 decodeMonth(uint8 month){
 803              		.loc 1 137 0
 804              		.cfi_startproc
 805 0000 80B5     		push	{r7, lr}
 806              		.cfi_def_cfa_offset 8
 807              		.cfi_offset 7, -8
 808              		.cfi_offset 14, -4
 809 0002 84B0     		sub	sp, sp, #16
 810              		.cfi_def_cfa_offset 24
 811 0004 00AF     		add	r7, sp, #0
 812              		.cfi_def_cfa_register 7
 813 0006 021C     		mov	r2, r0
 814 0008 FB1D     		add	r3, r7, #7
 815 000a 1A70     		strb	r2, [r3]
 138:TimeFunctions.c **** 
 139:TimeFunctions.c ****     uint8 tensMask = 0x10;  // 0001 0000 (Table 19, Pg. 22 PCF8523 Datasheet)
 816              		.loc 1 139 0
 817 000c 0F23     		mov	r3, #15
 818 000e FB18     		add	r3, r7, r3
 819 0010 1022     		mov	r2, #16
 820 0012 1A70     		strb	r2, [r3]
 140:TimeFunctions.c ****     uint8 onesMask = 0x0F;  // 0000 1111 (Table 19, Pg. 22 PCF8523 Datasheet)
 821              		.loc 1 140 0
 822 0014 0E23     		mov	r3, #14
 823 0016 FB18     		add	r3, r7, r3
 824 0018 0F22     		mov	r2, #15
 825 001a 1A70     		strb	r2, [r3]
 141:TimeFunctions.c ****     
 142:TimeFunctions.c ****     uint8 tens = (month & tensMask)>> 4;
 826              		.loc 1 142 0
 827 001c FB1D     		add	r3, r7, #7
ARM GAS  C:\Users\Joseph\AppData\Local\Temp\ccVaTh4X.s 			page 18


 828 001e 0F22     		mov	r2, #15
 829 0020 BA18     		add	r2, r7, r2
 830 0022 1B78     		ldrb	r3, [r3]
 831 0024 1278     		ldrb	r2, [r2]
 832 0026 1340     		and	r3, r2
 833 0028 DAB2     		uxtb	r2, r3
 834 002a 0D23     		mov	r3, #13
 835 002c FB18     		add	r3, r7, r3
 836 002e 1209     		lsr	r2, r2, #4
 837 0030 1A70     		strb	r2, [r3]
 143:TimeFunctions.c ****     tens = tens * 10;
 838              		.loc 1 143 0
 839 0032 0D23     		mov	r3, #13
 840 0034 FA18     		add	r2, r7, r3
 841 0036 0D23     		mov	r3, #13
 842 0038 FB18     		add	r3, r7, r3
 843 003a 1B78     		ldrb	r3, [r3]
 844 003c 191C     		add	r1, r3, #0
 845 003e 8900     		lsl	r1, r1, #2
 846 0040 CB18     		add	r3, r1, r3
 847 0042 DB18     		add	r3, r3, r3
 848 0044 1370     		strb	r3, [r2]
 144:TimeFunctions.c ****     uint8 ones = (month & onesMask);
 849              		.loc 1 144 0
 850 0046 0C23     		mov	r3, #12
 851 0048 FB18     		add	r3, r7, r3
 852 004a FA1D     		add	r2, r7, #7
 853 004c 0E21     		mov	r1, #14
 854 004e 7918     		add	r1, r7, r1
 855 0050 1278     		ldrb	r2, [r2]
 856 0052 0978     		ldrb	r1, [r1]
 857 0054 0A40     		and	r2, r1
 858 0056 1A70     		strb	r2, [r3]
 145:TimeFunctions.c **** 
 146:TimeFunctions.c ****     return tens  + ones;
 859              		.loc 1 146 0
 860 0058 0D23     		mov	r3, #13
 861 005a FA18     		add	r2, r7, r3
 862 005c 0C23     		mov	r3, #12
 863 005e FB18     		add	r3, r7, r3
 864 0060 1278     		ldrb	r2, [r2]
 865 0062 1B78     		ldrb	r3, [r3]
 866 0064 D318     		add	r3, r2, r3
 867 0066 DBB2     		uxtb	r3, r3
 147:TimeFunctions.c **** 
 148:TimeFunctions.c **** }
 868              		.loc 1 148 0
 869 0068 181C     		mov	r0, r3
 870 006a BD46     		mov	sp, r7
 871 006c 04B0     		add	sp, sp, #16
 872              		@ sp needed
 873 006e 80BD     		pop	{r7, pc}
 874              		.cfi_endproc
 875              	.LFE45:
 876              		.size	decodeMonth, .-decodeMonth
 877              		.section	.text.encodeMonth,"ax",%progbits
 878              		.align	2
ARM GAS  C:\Users\Joseph\AppData\Local\Temp\ccVaTh4X.s 			page 19


 879              		.global	encodeMonth
 880              		.code	16
 881              		.thumb_func
 882              		.type	encodeMonth, %function
 883              	encodeMonth:
 884              	.LFB46:
 149:TimeFunctions.c **** uint8 encodeMonth(uint8 month){
 885              		.loc 1 149 0
 886              		.cfi_startproc
 887 0000 90B5     		push	{r4, r7, lr}
 888              		.cfi_def_cfa_offset 12
 889              		.cfi_offset 4, -12
 890              		.cfi_offset 7, -8
 891              		.cfi_offset 14, -4
 892 0002 85B0     		sub	sp, sp, #20
 893              		.cfi_def_cfa_offset 32
 894 0004 00AF     		add	r7, sp, #0
 895              		.cfi_def_cfa_register 7
 896 0006 021C     		mov	r2, r0
 897 0008 FB1D     		add	r3, r7, #7
 898 000a 1A70     		strb	r2, [r3]
 150:TimeFunctions.c **** 
 151:TimeFunctions.c ****     uint8 tens = month / 10;
 899              		.loc 1 151 0
 900 000c 0F23     		mov	r3, #15
 901 000e FC18     		add	r4, r7, r3
 902 0010 FB1D     		add	r3, r7, #7
 903 0012 1B78     		ldrb	r3, [r3]
 904 0014 181C     		mov	r0, r3
 905 0016 0A21     		mov	r1, #10
 906 0018 FFF7FEFF 		bl	__aeabi_uidiv
 907 001c 031C     		mov	r3, r0
 908 001e 2370     		strb	r3, [r4]
 152:TimeFunctions.c ****     uint8 ones = month - (tens * 10);
 909              		.loc 1 152 0
 910 0020 0F23     		mov	r3, #15
 911 0022 FB18     		add	r3, r7, r3
 912 0024 1B78     		ldrb	r3, [r3]
 913 0026 0A22     		mov	r2, #10
 914 0028 5242     		neg	r2, r2
 915 002a 5343     		mul	r3, r2
 916 002c D9B2     		uxtb	r1, r3
 917 002e 0E23     		mov	r3, #14
 918 0030 FB18     		add	r3, r7, r3
 919 0032 FA1D     		add	r2, r7, #7
 920 0034 1278     		ldrb	r2, [r2]
 921 0036 8A18     		add	r2, r1, r2
 922 0038 1A70     		strb	r2, [r3]
 153:TimeFunctions.c ****     
 154:TimeFunctions.c ****     return (tens << 4) | ones;
 923              		.loc 1 154 0
 924 003a 0F23     		mov	r3, #15
 925 003c FB18     		add	r3, r7, r3
 926 003e 1B78     		ldrb	r3, [r3]
 927 0040 1B01     		lsl	r3, r3, #4
 928 0042 DAB2     		uxtb	r2, r3
 929 0044 0E23     		mov	r3, #14
ARM GAS  C:\Users\Joseph\AppData\Local\Temp\ccVaTh4X.s 			page 20


 930 0046 FB18     		add	r3, r7, r3
 931 0048 1B78     		ldrb	r3, [r3]
 932 004a 1343     		orr	r3, r2
 933 004c DBB2     		uxtb	r3, r3
 934 004e DBB2     		uxtb	r3, r3
 155:TimeFunctions.c **** 
 156:TimeFunctions.c **** }
 935              		.loc 1 156 0
 936 0050 181C     		mov	r0, r3
 937 0052 BD46     		mov	sp, r7
 938 0054 05B0     		add	sp, sp, #20
 939              		@ sp needed
 940 0056 90BD     		pop	{r4, r7, pc}
 941              		.cfi_endproc
 942              	.LFE46:
 943              		.size	encodeMonth, .-encodeMonth
 944              		.section	.text.decodeYear,"ax",%progbits
 945              		.align	2
 946              		.global	decodeYear
 947              		.code	16
 948              		.thumb_func
 949              		.type	decodeYear, %function
 950              	decodeYear:
 951              	.LFB47:
 157:TimeFunctions.c **** 
 158:TimeFunctions.c **** uint8 decodeYear(uint8 year){
 952              		.loc 1 158 0
 953              		.cfi_startproc
 954 0000 80B5     		push	{r7, lr}
 955              		.cfi_def_cfa_offset 8
 956              		.cfi_offset 7, -8
 957              		.cfi_offset 14, -4
 958 0002 84B0     		sub	sp, sp, #16
 959              		.cfi_def_cfa_offset 24
 960 0004 00AF     		add	r7, sp, #0
 961              		.cfi_def_cfa_register 7
 962 0006 021C     		mov	r2, r0
 963 0008 FB1D     		add	r3, r7, #7
 964 000a 1A70     		strb	r2, [r3]
 159:TimeFunctions.c **** 
 160:TimeFunctions.c ****     uint8 tensMask = 0xF0;  // 1111 0000 (Table 21, Pg. 23 PCF8523 Datasheet)
 965              		.loc 1 160 0
 966 000c 0F23     		mov	r3, #15
 967 000e FB18     		add	r3, r7, r3
 968 0010 F022     		mov	r2, #240
 969 0012 1A70     		strb	r2, [r3]
 161:TimeFunctions.c ****     uint8 onesMask = 0x0F;  // 0000 1111 (Table 21, Pg. 23 PCF8523 Datasheet)
 970              		.loc 1 161 0
 971 0014 0E23     		mov	r3, #14
 972 0016 FB18     		add	r3, r7, r3
 973 0018 0F22     		mov	r2, #15
 974 001a 1A70     		strb	r2, [r3]
 162:TimeFunctions.c ****     
 163:TimeFunctions.c ****     uint8 tens = (year & tensMask)>> 4;
 975              		.loc 1 163 0
 976 001c FB1D     		add	r3, r7, #7
 977 001e 0F22     		mov	r2, #15
ARM GAS  C:\Users\Joseph\AppData\Local\Temp\ccVaTh4X.s 			page 21


 978 0020 BA18     		add	r2, r7, r2
 979 0022 1B78     		ldrb	r3, [r3]
 980 0024 1278     		ldrb	r2, [r2]
 981 0026 1340     		and	r3, r2
 982 0028 DAB2     		uxtb	r2, r3
 983 002a 0D23     		mov	r3, #13
 984 002c FB18     		add	r3, r7, r3
 985 002e 1209     		lsr	r2, r2, #4
 986 0030 1A70     		strb	r2, [r3]
 164:TimeFunctions.c ****     tens = tens * 10;
 987              		.loc 1 164 0
 988 0032 0D23     		mov	r3, #13
 989 0034 FA18     		add	r2, r7, r3
 990 0036 0D23     		mov	r3, #13
 991 0038 FB18     		add	r3, r7, r3
 992 003a 1B78     		ldrb	r3, [r3]
 993 003c 191C     		add	r1, r3, #0
 994 003e 8900     		lsl	r1, r1, #2
 995 0040 CB18     		add	r3, r1, r3
 996 0042 DB18     		add	r3, r3, r3
 997 0044 1370     		strb	r3, [r2]
 165:TimeFunctions.c ****     uint8 ones = (year & onesMask);
 998              		.loc 1 165 0
 999 0046 0C23     		mov	r3, #12
 1000 0048 FB18     		add	r3, r7, r3
 1001 004a FA1D     		add	r2, r7, #7
 1002 004c 0E21     		mov	r1, #14
 1003 004e 7918     		add	r1, r7, r1
 1004 0050 1278     		ldrb	r2, [r2]
 1005 0052 0978     		ldrb	r1, [r1]
 1006 0054 0A40     		and	r2, r1
 1007 0056 1A70     		strb	r2, [r3]
 166:TimeFunctions.c **** 
 167:TimeFunctions.c ****     return tens  + ones;
 1008              		.loc 1 167 0
 1009 0058 0D23     		mov	r3, #13
 1010 005a FA18     		add	r2, r7, r3
 1011 005c 0C23     		mov	r3, #12
 1012 005e FB18     		add	r3, r7, r3
 1013 0060 1278     		ldrb	r2, [r2]
 1014 0062 1B78     		ldrb	r3, [r3]
 1015 0064 D318     		add	r3, r2, r3
 1016 0066 DBB2     		uxtb	r3, r3
 168:TimeFunctions.c **** }
 1017              		.loc 1 168 0
 1018 0068 181C     		mov	r0, r3
 1019 006a BD46     		mov	sp, r7
 1020 006c 04B0     		add	sp, sp, #16
 1021              		@ sp needed
 1022 006e 80BD     		pop	{r7, pc}
 1023              		.cfi_endproc
 1024              	.LFE47:
 1025              		.size	decodeYear, .-decodeYear
 1026              		.section	.text.encodeYear,"ax",%progbits
 1027              		.align	2
 1028              		.global	encodeYear
 1029              		.code	16
ARM GAS  C:\Users\Joseph\AppData\Local\Temp\ccVaTh4X.s 			page 22


 1030              		.thumb_func
 1031              		.type	encodeYear, %function
 1032              	encodeYear:
 1033              	.LFB48:
 169:TimeFunctions.c **** uint8 encodeYear(uint8 year){
 1034              		.loc 1 169 0
 1035              		.cfi_startproc
 1036 0000 90B5     		push	{r4, r7, lr}
 1037              		.cfi_def_cfa_offset 12
 1038              		.cfi_offset 4, -12
 1039              		.cfi_offset 7, -8
 1040              		.cfi_offset 14, -4
 1041 0002 85B0     		sub	sp, sp, #20
 1042              		.cfi_def_cfa_offset 32
 1043 0004 00AF     		add	r7, sp, #0
 1044              		.cfi_def_cfa_register 7
 1045 0006 021C     		mov	r2, r0
 1046 0008 FB1D     		add	r3, r7, #7
 1047 000a 1A70     		strb	r2, [r3]
 170:TimeFunctions.c **** 
 171:TimeFunctions.c ****     uint8 tens = year / 10;
 1048              		.loc 1 171 0
 1049 000c 0F23     		mov	r3, #15
 1050 000e FC18     		add	r4, r7, r3
 1051 0010 FB1D     		add	r3, r7, #7
 1052 0012 1B78     		ldrb	r3, [r3]
 1053 0014 181C     		mov	r0, r3
 1054 0016 0A21     		mov	r1, #10
 1055 0018 FFF7FEFF 		bl	__aeabi_uidiv
 1056 001c 031C     		mov	r3, r0
 1057 001e 2370     		strb	r3, [r4]
 172:TimeFunctions.c ****     uint8 ones = year - (tens * 10);
 1058              		.loc 1 172 0
 1059 0020 0F23     		mov	r3, #15
 1060 0022 FB18     		add	r3, r7, r3
 1061 0024 1B78     		ldrb	r3, [r3]
 1062 0026 0A22     		mov	r2, #10
 1063 0028 5242     		neg	r2, r2
 1064 002a 5343     		mul	r3, r2
 1065 002c D9B2     		uxtb	r1, r3
 1066 002e 0E23     		mov	r3, #14
 1067 0030 FB18     		add	r3, r7, r3
 1068 0032 FA1D     		add	r2, r7, #7
 1069 0034 1278     		ldrb	r2, [r2]
 1070 0036 8A18     		add	r2, r1, r2
 1071 0038 1A70     		strb	r2, [r3]
 173:TimeFunctions.c ****     
 174:TimeFunctions.c ****     return (tens << 4) | ones;
 1072              		.loc 1 174 0
 1073 003a 0F23     		mov	r3, #15
 1074 003c FB18     		add	r3, r7, r3
 1075 003e 1B78     		ldrb	r3, [r3]
 1076 0040 1B01     		lsl	r3, r3, #4
 1077 0042 DAB2     		uxtb	r2, r3
 1078 0044 0E23     		mov	r3, #14
 1079 0046 FB18     		add	r3, r7, r3
 1080 0048 1B78     		ldrb	r3, [r3]
ARM GAS  C:\Users\Joseph\AppData\Local\Temp\ccVaTh4X.s 			page 23


 1081 004a 1343     		orr	r3, r2
 1082 004c DBB2     		uxtb	r3, r3
 1083 004e DBB2     		uxtb	r3, r3
 175:TimeFunctions.c ****     
 176:TimeFunctions.c **** }
 1084              		.loc 1 176 0
 1085 0050 181C     		mov	r0, r3
 1086 0052 BD46     		mov	sp, r7
 1087 0054 05B0     		add	sp, sp, #20
 1088              		@ sp needed
 1089 0056 90BD     		pop	{r4, r7, pc}
 1090              		.cfi_endproc
 1091              	.LFE48:
 1092              		.size	encodeYear, .-encodeYear
 1093              		.text
 1094              	.Letext0:
 1095              		.file 2 "Generated_Source\\PSoC4/cytypes.h"